(dp0
((iQStates
QState
p1
(dp2
S'position'
p3
I0
sS'street'
p4
I3
sS'prevAction'
p5
(iQStates
PrevAction
p6
(dp7
S'opp2Amt'
p8
I3
sS'opp2Fold'
p9
I0
sS'opp2CheckCallNum'
p10
I1
sS'opp1Amt'
p11
I0
sS'opp1BetRaiseNum'
p12
I0
sS'opp1Fold'
p13
I1
sS'opp2BetRaiseNum'
p14
I0
sS'opp1CheckCallNum'
p15
I0
sbsS'equity'
p16
I1
sbS'FOLD'
p17
tp18
F-17.0
s((iQStates
QState
p19
(dp20
g3
I0
sg4
I4
sg5
(iQStates
PrevAction
p21
(dp22
g8
I0
sg9
I0
sg10
I0
sg11
I0
sg12
I0
sg13
I0
sg14
I0
sg15
I0
sbsg16
I2
sbS'BET50'
p23
tp24
F-245.0
s((iQStates
QState
p25
(dp26
g3
I0
sg4
I0
sg5
(iQStates
PrevAction
p27
(dp28
g8
I6
sg9
I0
sg10
I2
sg11
I6
sg12
I2
sg13
I0
sg14
I1
sg15
I0
sbsg16
I1
sbS'BET60'
p29
tp30
F-124.0
s((iQStates
QState
p31
(dp32
g3
I0
sg4
I0
sg5
(iQStates
PrevAction
p33
(dp34
g8
I0
sg9
I1
sg10
I0
sg11
I0
sg12
I0
sg13
I0
sg14
I0
sg15
I0
sbsg16
I2
sbg29
tp35
F-77.84
s((iQStates
QState
p36
(dp37
g3
I0
sg4
I0
sg5
(iQStates
PrevAction
p38
(dp39
g8
I3
sg9
I0
sg10
I0
sg11
I0
sg12
I0
sg13
I1
sg14
I1
sg15
I0
sbsg16
I1
sbS'BET80'
p40
tp41
F-64.0
s((iQStates
QState
p42
(dp43
g3
I0
sg4
I4
sg5
(iQStates
PrevAction
p44
(dp45
g8
I0
sg9
I0
sg10
I0
sg11
I0
sg12
I0
sg13
I0
sg14
I0
sg15
I1
sbsg16
I1
sbg23
tp46
F-80.0
s((iQStates
QState
p47
(dp48
g3
I0
sg4
I0
sg5
(iQStates
PrevAction
p49
(dp50
g8
I3
sg9
I0
sg10
I1
sg11
I3
sg12
I1
sg13
I0
sg14
I0
sg15
I0
sbsg16
I3
sbS'BET30'
p51
tp52
F-35.0
s((iQStates
QState
p53
(dp54
g3
I0
sg4
I3
sg5
(iQStates
PrevAction
p55
(dp56
g8
I0
sg9
I0
sg10
I0
sg11
I0
sg12
I0
sg13
I0
sg14
I0
sg15
I0
sbsg16
I0
sbS'CHECK'
p57
tp58
F-80.0
s((iQStates
QState
p59
(dp60
g3
I0
sg4
I0
sg5
(iQStates
PrevAction
p61
(dp62
g8
I0
sg9
I0
sg10
I0
sg11
I0
sg12
I0
sg13
I0
sg14
I0
sg15
I0
sbsg16
I1
sbg23
tp63
F-26.4
s((iQStates
QState
p64
(dp65
g3
I0
sg4
I3
sg5
(iQStates
PrevAction
p66
(dp67
g8
I3
sg9
I0
sg10
I1
sg11
I0
sg12
I0
sg13
I0
sg14
I1
sg15
I0
sbsg16
I2
sbS'BET90'
p68
tp69
F-39.0
s((iQStates
QState
p70
(dp71
g3
I0
sg4
I0
sg5
(iQStates
PrevAction
p72
(dp73
g8
I0
sg9
I1
sg10
I0
sg11
I0
sg12
I0
sg13
I0
sg14
I0
sg15
I0
sbsg16
I1
sbS'BET70'
p74
tp75
F54.0
s((iQStates
QState
p76
(dp77
g3
I0
sg4
I3
sg5
(iQStates
PrevAction
p78
(dp79
g8
I0
sg9
I0
sg10
I0
sg11
I1
sg12
I0
sg13
I0
sg14
I0
sg15
I1
sbsg16
I4
sbS'FOLD'
p80
tp81
F54.0
s((iQStates
QState
p82
(dp83
g3
I0
sg4
I0
sg5
(iQStates
PrevAction
p84
(dp85
g8
I0
sg9
I0
sg10
I0
sg11
I3
sg12
I1
sg13
I0
sg14
I0
sg15
I0
sbsg16
I1
sbS'BET20'
p86
tp87
F-17.0
s((iQStates
QState
p88
(dp89
g3
I0
sg4
I0
sg5
(iQStates
PrevAction
p90
(dp91
g8
I4
sg9
I0
sg10
I0
sg11
I3
sg12
I1
sg13
I0
sg14
I1
sg15
I0
sbsg16
I2
sbS'BET60'
p92
tp93
F-60.0
s((iQStates
QState
p94
(dp95
g3
I0
sg4
I0
sg5
(iQStates
PrevAction
p96
(dp97
g8
I0
sg9
I0
sg10
I0
sg11
I0
sg12
I0
sg13
I0
sg14
I0
sg15
I1
sbsg16
I1
sbS'CHECK'
p98
tp99
F-30.0
s((iQStates
QState
p100
(dp101
g3
I0
sg4
I0
sg5
(iQStates
PrevAction
p102
(dp103
g8
I0
sg9
I0
sg10
I0
sg11
I0
sg12
I0
sg13
I0
sg14
I0
sg15
I1
sbsg16
I2
sbg80
tp104
F2.0
s((iQStates
QState
p105
(dp106
g3
I0
sg4
I0
sg5
(iQStates
PrevAction
p107
(dp108
g8
I0
sg9
I1
sg10
I0
sg11
I0
sg12
I0
sg13
I0
sg14
I0
sg15
I0
sbsg16
I1
sbS'BET40'
p109
tp110
F11.4
s((iQStates
QState
p111
(dp112
g3
I0
sg4
I3
sg5
(iQStates
PrevAction
p113
(dp114
g8
I0
sg9
I0
sg10
I1
sg11
I0
sg12
I0
sg13
I0
sg14
I0
sg15
I0
sbsg16
I2
sbS'BET30'
p115
tp116
F-32.0
s((iQStates
QState
p117
(dp118
g3
I1
sg4
I3
sg5
(iQStates
PrevAction
p119
(dp120
g8
I3
sg9
I0
sg10
I2
sg11
I3
sg12
I1
sg13
I0
sg14
I0
sg15
I1
sbsg16
I1
sbS'BET70'
p121
tp122
F-64.0
s((iQStates
QState
p123
(dp124
g3
I0
sg4
I0
sg5
(iQStates
PrevAction
p125
(dp126
g8
I1
sg9
I0
sg10
I0
sg11
I0
sg12
I0
sg13
I0
sg14
I1
sg15
I0
sbsg16
I3
sbS'BET80'
p127
tp128
F-103.6
s((iQStates
QState
p129
(dp130
g3
I0
sg4
I0
sg5
(iQStates
PrevAction
p131
(dp132
g8
I0
sg9
I0
sg10
I1
sg11
I0
sg12
I0
sg13
I0
sg14
I0
sg15
I0
sbsg16
I2
sbg127
tp133
F-16.0
s((iQStates
QState
p134
(dp135
g3
I0
sg4
I0
sg5
(iQStates
PrevAction
p136
(dp137
g8
I0
sg9
I1
sg10
I0
sg11
I0
sg12
I0
sg13
I0
sg14
I0
sg15
I0
sbsg16
I1
sbS'BET10'
p138
tp139
F11.0
s((iQStates
QState
p140
(dp141
g3
I1
sg4
I0
sg5
(iQStates
PrevAction
p142
(dp143
g8
I2
sg9
I0
sg10
I0
sg11
I0
sg12
I0
sg13
I0
sg14
I1
sg15
I1
sbsg16
I2
sbS'BET50'
p144
tp145
F-98.0
s((iQStates
QState
p146
(dp147
g3
I0
sg4
I3
sg5
(iQStates
PrevAction
p148
(dp149
g8
I3
sg9
I0
sg10
I2
sg11
I3
sg12
I0
sg13
I0
sg14
I0
sg15
I1
sbsg16
I0
sbg80
tp150
F-20.0
s((iQStates
QState
p151
(dp152
g3
I0
sg4
I0
sg5
(iQStates
PrevAction
p153
(dp154
g8
I3
sg9
I0
sg10
I0
sg11
I0
sg12
I0
sg13
I1
sg14
I1
sg15
I0
sbsg16
I2
sbg51
tp155
F-35.0
s((iQStates
QState
p156
(dp157
g3
I1
sg4
I3
sg5
(iQStates
PrevAction
p158
(dp159
g8
I0
sg9
I1
sg10
I0
sg11
I3
sg12
I1
sg13
I0
sg14
I0
sg15
I1
sbsg16
I2
sbg23
tp160
F66.0
s((iQStates
QState
p161
(dp162
g3
I0
sg4
I0
sg5
(iQStates
PrevAction
p163
(dp164
g8
I0
sg9
I0
sg10
I0
sg11
I0
sg12
I0
sg13
I0
sg14
I0
sg15
I0
sbsg16
I5
sbS'BET20'
p165
tp166
F-7.0
s((iQStates
QState
p167
(dp168
g3
I0
sg4
I0
sg5
(iQStates
PrevAction
p169
(dp170
g8
I0
sg9
I0
sg10
I1
sg11
I0
sg12
I0
sg13
I0
sg14
I0
sg15
I0
sbsg16
I1
sbg138
tp171
F10.0
s((iQStates
QState
p172
(dp173
g3
I0
sg4
I3
sg5
(iQStates
PrevAction
p174
(dp175
g8
I0
sg9
I0
sg10
I0
sg11
I4
sg12
I0
sg13
I0
sg14
I0
sg15
I1
sbsg16
I3
sbS'BET50'
p176
tp177
F-90.0
s((iQStates
QState
p178
(dp179
g3
I0
sg4
I0
sg5
(iQStates
PrevAction
p180
(dp181
g8
I4
sg9
I0
sg10
I0
sg11
I2
sg12
I0
sg13
I0
sg14
I2
sg15
I1
sbsg16
I2
sbS'BET30'
p182
tp183
F-119.0
s((iQStates
QState
p184
(dp185
g3
I0
sg4
I3
sg5
(iQStates
PrevAction
p186
(dp187
g8
I5
sg9
I0
sg10
I1
sg11
I3
sg12
I1
sg13
I0
sg14
I1
sg15
I0
sbsg16
I2
sbg23
tp188
F-81.0
s((iQStates
QState
p189
(dp190
g3
I1
sg4
I0
sg5
(iQStates
PrevAction
p191
(dp192
g8
I1
sg9
I0
sg10
I1
sg11
I1
sg12
I1
sg13
I0
sg14
I0
sg15
I0
sbsg16
I4
sbg138
tp193
F-41.0
s((iQStates
QState
p194
(dp195
g3
I1
sg4
I0
sg5
(iQStates
PrevAction
p196
(dp197
g8
I2
sg9
I0
sg10
I0
sg11
I1
sg12
I1
sg13
I0
sg14
I1
sg15
I0
sbsg16
I3
sbS'BET60'
p198
tp199
F-80.0
s((iQStates
QState
p200
(dp201
g3
I1
sg4
I0
sg5
(iQStates
PrevAction
p202
(dp203
g8
I1
sg9
I0
sg10
I1
sg11
I1
sg12
I1
sg13
I0
sg14
I0
sg15
I0
sbsg16
I1
sbg138
tp204
F-10.0
s((iQStates
QState
p205
(dp206
g3
I0
sg4
I3
sg5
(iQStates
PrevAction
p207
(dp208
g8
I0
sg9
I0
sg10
I0
sg11
I0
sg12
I0
sg13
I0
sg14
I0
sg15
I0
sbsg16
I2
sbg198
tp209
F-51.0
s((iQStates
QState
p210
(dp211
g3
I1
sg4
I5
sg5
(iQStates
PrevAction
p212
(dp213
g8
I2
sg9
I0
sg10
I0
sg11
I0
sg12
I0
sg13
I0
sg14
I1
sg15
I0
sbsg16
I1
sbg198
tp214
F-91.0
s((iQStates
QState
p215
(dp216
g3
I1
sg4
I0
sg5
(iQStates
PrevAction
p217
(dp218
g8
I1
sg9
I0
sg10
I0
sg11
I0
sg12
I0
sg13
I1
sg14
I1
sg15
I0
sbsg16
I2
sbg165
tp219
F33.0
s((iQStates
QState
p220
(dp221
g3
I1
sg4
I3
sg5
(iQStates
PrevAction
p222
(dp223
g8
I0
sg9
I0
sg10
I0
sg11
I0
sg12
I0
sg13
I0
sg14
I0
sg15
I1
sbsg16
I1
sbg57
tp224
F90.0
s((iQStates
QState
p225
(dp226
g3
I0
sg4
I0
sg5
(iQStates
PrevAction
p227
(dp228
g8
I0
sg9
I0
sg10
I0
sg11
I3
sg12
I1
sg13
I0
sg14
I0
sg15
I1
sbsg16
I1
sbg68
tp229
F-48.0
s((iQStates
QState
p230
(dp231
g3
I1
sg4
I0
sg5
(iQStates
PrevAction
p232
(dp233
g8
I5
sg9
I0
sg10
I1
sg11
I1
sg12
I1
sg13
I1
sg14
I1
sg15
I0
sbsg16
I3
sbS'BET70'
p234
tp235
F-58.0
s((iQStates
QState
p236
(dp237
g3
I0
sg4
I3
sg5
(iQStates
PrevAction
p238
(dp239
g8
I3
sg9
I0
sg10
I1
sg11
I3
sg12
I0
sg13
I0
sg14
I0
sg15
I1
sbsg16
I1
sbS'BET10'
p240
tp241
F-27.0
s((iQStates
QState
p242
(dp243
g3
I0
sg4
I0
sg5
(iQStates
PrevAction
p244
(dp245
g8
I0
sg9
I0
sg10
I0
sg11
I0
sg12
I0
sg13
I0
sg14
I0
sg15
I0
sbsg16
I5
sbg182
tp246
F-7.0
s((iQStates
QState
p247
(dp248
g3
I0
sg4
I3
sg5
(iQStates
PrevAction
p249
(dp250
g8
I3
sg9
I0
sg10
I1
sg11
I0
sg12
I0
sg13
I0
sg14
I1
sg15
I0
sbsg16
I2
sbg115
tp251
F-32.0
s((iQStates
QState
p252
(dp253
g3
I0
sg4
I0
sg5
(iQStates
PrevAction
p254
(dp255
g8
I0
sg9
I0
sg10
I0
sg11
I0
sg12
I0
sg13
I0
sg14
I0
sg15
I1
sbsg16
I1
sbg23
tp256
F-6.0
s((iQStates
QState
p257
(dp258
g3
I0
sg4
I0
sg5
(iQStates
PrevAction
p259
(dp260
g8
I6
sg9
I0
sg10
I1
sg11
I6
sg12
I2
sg13
I0
sg14
I1
sg15
I0
sbsg16
I1
sbg40
tp261
F-117.0
s((iQStates
QState
p262
(dp263
g3
I0
sg4
I0
sg5
(iQStates
PrevAction
p264
(dp265
g8
I0
sg9
I0
sg10
I1
sg11
I0
sg12
I0
sg13
I0
sg14
I0
sg15
I0
sbsg16
I4
sbg121
tp266
F-32.0
s((iQStates
QState
p267
(dp268
g3
I0
sg4
I4
sg5
(iQStates
PrevAction
p269
(dp270
g8
I5
sg9
I0
sg10
I1
sg11
I0
sg12
I0
sg13
I0
sg14
I1
sg15
I0
sbsg16
I0
sbS'BET90'
p271
tp272
F-148.0
s((iQStates
QState
p273
(dp274
g3
I0
sg4
I0
sg5
(iQStates
PrevAction
p275
(dp276
g8
I0
sg9
I0
sg10
I1
sg11
I0
sg12
I0
sg13
I0
sg14
I0
sg15
I0
sbsg16
I1
sbg115
tp277
F41.599999999999994
s((iQStates
QState
p278
(dp279
g3
I0
sg4
I0
sg5
(iQStates
PrevAction
p280
(dp281
g8
I4
sg9
I0
sg10
I1
sg11
I3
sg12
I1
sg13
I0
sg14
I1
sg15
I0
sbsg16
I1
sbg86
tp282
F72.0
s((iQStates
QState
p283
(dp284
g3
I1
sg4
I0
sg5
(iQStates
PrevAction
p285
(dp286
g8
I0
sg9
I1
sg10
I0
sg11
I0
sg12
I0
sg13
I0
sg14
I0
sg15
I1
sbsg16
I2
sbg51
tp287
F14.0
s((iQStates
QState
p288
(dp289
g3
I0
sg4
I0
sg5
(iQStates
PrevAction
p290
(dp291
g8
I0
sg9
I1
sg10
I1
sg11
I3
sg12
I1
sg13
I0
sg14
I0
sg15
I0
sbsg16
I2
sbg109
tp292
F-90.0
s((iQStates
QState
p293
(dp294
g3
I0
sg4
I3
sg5
(iQStates
PrevAction
p295
(dp296
g8
I0
sg9
I0
sg10
I0
sg11
I4
sg12
I0
sg13
I0
sg14
I0
sg15
I1
sbsg16
I1
sbg98
tp297
F-80.0
s((iQStates
QState
p298
(dp299
g3
I0
sg4
I0
sg5
(iQStates
PrevAction
p300
(dp301
g8
I0
sg9
I1
sg10
I0
sg11
I3
sg12
I1
sg13
I0
sg14
I0
sg15
I0
sbsg16
I2
sbg234
tp302
F52.0
s((iQStates
QState
p303
(dp304
g3
I1
sg4
I0
sg5
(iQStates
PrevAction
p305
(dp306
g8
I0
sg9
I1
sg10
I0
sg11
I1
sg12
I1
sg13
I0
sg14
I0
sg15
I0
sbsg16
I2
sbg29
tp307
F30.0
s((iQStates
QState
p308
(dp309
g3
I0
sg4
I3
sg5
(iQStates
PrevAction
p310
(dp311
g8
I0
sg9
I0
sg10
I0
sg11
I0
sg12
I0
sg13
I0
sg14
I0
sg15
I0
sbsg16
I3
sbg98
tp312
F-16.0
s((iQStates
QState
p313
(dp314
g3
I0
sg4
I0
sg5
(iQStates
PrevAction
p315
(dp316
g8
I0
sg9
I0
sg10
I0
sg11
I0
sg12
I0
sg13
I0
sg14
I0
sg15
I0
sbsg16
I5
sbg74
tp317
F37.0
s((iQStates
QState
p318
(dp319
g3
I0
sg4
I0
sg5
(iQStates
PrevAction
p320
(dp321
g8
I0
sg9
I0
sg10
I0
sg11
I3
sg12
I1
sg13
I0
sg14
I0
sg15
I0
sbsg16
I1
sbg68
tp322
F-39.0
s((iQStates
QState
p323
(dp324
g3
I1
sg4
I4
sg5
(iQStates
PrevAction
p325
(dp326
g8
I0
sg9
I0
sg10
I0
sg11
I0
sg12
I0
sg13
I0
sg14
I0
sg15
I1
sbsg16
I1
sbg92
tp327
F90.0
s((iQStates
QState
p328
(dp329
g3
I0
sg4
I4
sg5
(iQStates
PrevAction
p330
(dp331
g8
I0
sg9
I0
sg10
I0
sg11
I5
sg12
I0
sg13
I0
sg14
I0
sg15
I1
sbsg16
I4
sbg121
tp332
F-206.0
s((iQStates
QState
p333
(dp334
g3
I1
sg4
I0
sg5
(iQStates
PrevAction
p335
(dp336
g8
I2
sg9
I0
sg10
I0
sg11
I1
sg12
I1
sg13
I0
sg14
I1
sg15
I0
sbsg16
I2
sbg234
tp337
F99.0
s((iQStates
QState
p338
(dp339
g3
I0
sg4
I3
sg5
(iQStates
PrevAction
p340
(dp341
g8
I0
sg9
I0
sg10
I0
sg11
I1
sg12
I0
sg13
I0
sg14
I0
sg15
I1
sbsg16
I0
sbg92
tp342
F18.0
s((iQStates
QState
p343
(dp344
g3
I1
sg4
I3
sg5
(iQStates
PrevAction
p345
(dp346
g8
I0
sg9
I1
sg10
I0
sg11
I2
sg12
I0
sg13
I0
sg14
I0
sg15
I2
sbsg16
I0
sbg144
tp347
F-93.0
s((iQStates
QState
p348
(dp349
g3
I0
sg4
I0
sg5
(iQStates
PrevAction
p350
(dp351
g8
I0
sg9
I0
sg10
I0
sg11
I0
sg12
I0
sg13
I0
sg14
I0
sg15
I0
sbsg16
I2
sbg74
tp352
F4.231999999999999
s((iQStates
QState
p353
(dp354
g3
I0
sg4
I3
sg5
(iQStates
PrevAction
p355
(dp356
g8
I0
sg9
I0
sg10
I0
sg11
I0
sg12
I0
sg13
I0
sg14
I0
sg15
I0
sbsg16
I1
sbg51
tp357
F-72.0
s((iQStates
QState
p358
(dp359
g3
I0
sg4
I0
sg5
(iQStates
PrevAction
p360
(dp361
g8
I0
sg9
I1
sg10
I0
sg11
I0
sg12
I0
sg13
I0
sg14
I0
sg15
I0
sbsg16
I3
sbg198
tp362
F-18.0
s((iQStates
QState
p363
(dp364
g3
I0
sg4
I5
sg5
(iQStates
PrevAction
p365
(dp366
g8
I0
sg9
I0
sg10
I0
sg11
I6
sg12
I1
sg13
I0
sg14
I0
sg15
I0
sbsg16
I1
sbg68
tp367
F-289.0
s((iQStates
QState
p368
(dp369
g3
I0
sg4
I0
sg5
(iQStates
PrevAction
p370
(dp371
g8
I0
sg9
I1
sg10
I0
sg11
I0
sg12
I0
sg13
I0
sg14
I0
sg15
I0
sbsg16
I1
sbg51
tp372
F-2.8
s((iQStates
QState
p373
(dp374
g3
I0
sg4
I0
sg5
(iQStates
PrevAction
p375
(dp376
g8
I0
sg9
I1
sg10
I0
sg11
I0
sg12
I0
sg13
I0
sg14
I0
sg15
I0
sbsg16
I2
sbg121
tp377
F-40.0
s((iQStates
QState
p378
(dp379
g3
I0
sg4
I3
sg5
(iQStates
PrevAction
p380
(dp381
g8
I3
sg9
I0
sg10
I1
sg11
I0
sg12
I0
sg13
I1
sg14
I0
sg15
I0
sbsg16
I0
sbg40
tp382
F-53.0
s((iQStates
QState
p383
(dp384
g3
I0
sg4
I0
sg5
(iQStates
PrevAction
p385
(dp386
g8
I0
sg9
I0
sg10
I0
sg11
I0
sg12
I0
sg13
I0
sg14
I0
sg15
I0
sbsg16
I1
sbS'BET10'
p387
tp388
F-96.2
s((iQStates
QState
p389
(dp390
g3
I0
sg4
I0
sg5
(iQStates
PrevAction
p391
(dp392
g8
I1
sg9
I1
sg10
I0
sg11
I5
sg12
I1
sg13
I0
sg14
I1
sg15
I0
sbsg16
I2
sbg271
tp393
F116.0
s((iQStates
QState
p394
(dp395
g3
I0
sg4
I0
sg5
(iQStates
PrevAction
p396
(dp397
g8
I0
sg9
I0
sg10
I0
sg11
I0
sg12
I0
sg13
I0
sg14
I0
sg15
I0
sbsg16
I3
sbg68
tp398
F-5.178048000000007
s((iQStates
QState
p399
(dp400
g3
I1
sg4
I0
sg5
(iQStates
PrevAction
p401
(dp402
g8
I1
sg9
I0
sg10
I0
sg11
I0
sg12
I0
sg13
I1
sg14
I1
sg15
I0
sbsg16
I2
sbg138
tp403
F-60.8
s((iQStates
QState
p404
(dp405
g3
I1
sg4
I3
sg5
(iQStates
PrevAction
p406
(dp407
g8
I3
sg9
I0
sg10
I1
sg11
I0
sg12
I0
sg13
I1
sg14
I1
sg15
I0
sbsg16
I0
sbg115
tp408
F-37.0
s((iQStates
QState
p409
(dp410
g3
I0
sg4
I0
sg5
(iQStates
PrevAction
p411
(dp412
g8
I1
sg9
I0
sg10
I0
sg11
I0
sg12
I0
sg13
I0
sg14
I1
sg15
I0
sbsg16
I3
sbg144
tp413
F-17.0
s((iQStates
QState
p414
(dp415
g3
I0
sg4
I0
sg5
(iQStates
PrevAction
p416
(dp417
g8
I1
sg9
I0
sg10
I0
sg11
I0
sg12
I0
sg13
I0
sg14
I1
sg15
I0
sbsg16
I3
sbg74
tp418
F34.0
s((iQStates
QState
p419
(dp420
g3
I0
sg4
I3
sg5
(iQStates
PrevAction
p421
(dp422
g8
I0
sg9
I0
sg10
I0
sg11
I1
sg12
I0
sg13
I0
sg14
I0
sg15
I1
sbsg16
I2
sbg182
tp423
F-206.0
s((iQStates
QState
p424
(dp425
g3
I0
sg4
I3
sg5
(iQStates
PrevAction
p426
(dp427
g8
I0
sg9
I0
sg10
I0
sg11
I0
sg12
I0
sg13
I0
sg14
I0
sg15
I0
sbsg16
I2
sbg138
tp428
F-30.0
s((iQStates
QState
p429
(dp430
g3
I0
sg4
I3
sg5
(iQStates
PrevAction
p431
(dp432
g8
I0
sg9
I0
sg10
I0
sg11
I0
sg12
I0
sg13
I0
sg14
I0
sg15
I0
sbsg16
I2
sbS'CHECK'
p433
tp434
F-121.0
s((iQStates
QState
p435
(dp436
g3
I1
sg4
I0
sg5
(iQStates
PrevAction
p437
(dp438
g8
I0
sg9
I1
sg10
I0
sg11
I0
sg12
I0
sg13
I0
sg14
I0
sg15
I1
sbsg16
I2
sbS'FOLD'
p439
tp440
F33.0
s((iQStates
QState
p441
(dp442
g3
I1
sg4
I0
sg5
(iQStates
PrevAction
p443
(dp444
g8
I0
sg9
I0
sg10
I1
sg11
I0
sg12
I0
sg13
I0
sg14
I0
sg15
I1
sbsg16
I3
sbS'BET40'
p445
tp446
F-186.0
s((iQStates
QState
p447
(dp448
g3
I0
sg4
I0
sg5
(iQStates
PrevAction
p449
(dp450
g8
I5
sg9
I0
sg10
I0
sg11
I4
sg12
I1
sg13
I0
sg14
I2
sg15
I1
sbsg16
I3
sbg445
tp451
F-55.0
s((iQStates
QState
p452
(dp453
g3
I0
sg4
I3
sg5
(iQStates
PrevAction
p454
(dp455
g8
I0
sg9
I0
sg10
I1
sg11
I0
sg12
I0
sg13
I0
sg14
I0
sg15
I0
sbsg16
I2
sbg23
tp456
F-81.0
s((iQStates
QState
p457
(dp458
g3
I0
sg4
I4
sg5
(iQStates
PrevAction
p459
(dp460
g8
I0
sg9
I0
sg10
I0
sg11
I0
sg12
I0
sg13
I0
sg14
I0
sg15
I1
sbsg16
I4
sbg86
tp461
F54.0
s((iQStates
QState
p462
(dp463
g3
I0
sg4
I3
sg5
(iQStates
PrevAction
p464
(dp465
g8
I2
sg9
I0
sg10
I1
sg11
I2
sg12
I0
sg13
I0
sg14
I0
sg15
I1
sbsg16
I0
sbg57
tp466
F-32.0
s((iQStates
QState
p467
(dp468
g3
I0
sg4
I4
sg5
(iQStates
PrevAction
p469
(dp470
g8
I0
sg9
I0
sg10
I1
sg11
I0
sg12
I0
sg13
I0
sg14
I0
sg15
I1
sbsg16
I0
sbg439
tp471
F-32.0
s((iQStates
QState
p472
(dp473
g3
I0
sg4
I4
sg5
(iQStates
PrevAction
p474
(dp475
g8
I0
sg9
I0
sg10
I0
sg11
I4
sg12
I0
sg13
I0
sg14
I0
sg15
I1
sbsg16
I0
sbg240
tp476
F102.0
s((iQStates
QState
p477
(dp478
g3
I1
sg4
I0
sg5
(iQStates
PrevAction
p479
(dp480
g8
I5
sg9
I0
sg10
I2
sg11
I5
sg12
I1
sg13
I0
sg14
I1
sg15
I2
sbsg16
I3
sbg445
tp481
F-186.0
s((iQStates
QState
p482
(dp483
g3
I0
sg4
I0
sg5
(iQStates
PrevAction
p484
(dp485
g8
I5
sg9
I0
sg10
I0
sg11
I4
sg12
I1
sg13
I0
sg14
I2
sg15
I0
sbsg16
I2
sbg127
tp486
F-78.0
s((iQStates
QState
p487
(dp488
g3
I0
sg4
I0
sg5
(iQStates
PrevAction
p489
(dp490
g8
I0
sg9
I1
sg10
I0
sg11
I3
sg12
I1
sg13
I0
sg14
I0
sg15
I0
sbsg16
I2
sbg86
tp491
F32.4
s((iQStates
QState
p492
(dp493
g3
I0
sg4
I3
sg5
(iQStates
PrevAction
p494
(dp495
g8
I0
sg9
I0
sg10
I0
sg11
I4
sg12
I1
sg13
I0
sg14
I0
sg15
I1
sbsg16
I2
sbg40
tp496
F-206.0
s((iQStates
QState
p497
(dp498
g3
I0
sg4
I0
sg5
(iQStates
PrevAction
p499
(dp500
g8
I0
sg9
I0
sg10
I0
sg11
I0
sg12
I0
sg13
I0
sg14
I0
sg15
I0
sbsg16
I2
sbg23
tp501
F1.1360000000000028
s((iQStates
QState
p502
(dp503
g3
I0
sg4
I0
sg5
(iQStates
PrevAction
p504
(dp505
g8
I0
sg9
I0
sg10
I0
sg11
I0
sg12
I0
sg13
I0
sg14
I0
sg15
I0
sbsg16
I1
sbg86
tp506
F-4.040000000000003
s((iQStates
QState
p507
(dp508
g3
I0
sg4
I0
sg5
(iQStates
PrevAction
p509
(dp510
g8
I0
sg9
I0
sg10
I0
sg11
I0
sg12
I0
sg13
I0
sg14
I0
sg15
I0
sbsg16
I2
sbg115
tp511
F-7.0
s((iQStates
QState
p512
(dp513
g3
I0
sg4
I3
sg5
(iQStates
PrevAction
p514
(dp515
g8
I2
sg9
I0
sg10
I1
sg11
I0
sg12
I0
sg13
I1
sg14
I0
sg15
I0
sbsg16
I0
sbg86
tp516
F28.0
s((iQStates
QState
p517
(dp518
g3
I0
sg4
I3
sg5
(iQStates
PrevAction
p519
(dp520
g8
I2
sg9
I0
sg10
I1
sg11
I2
sg12
I0
sg13
I0
sg14
I0
sg15
I1
sbsg16
I4
sbg51
tp521
F40.0
s((iQStates
QState
p522
(dp523
g3
I0
sg4
I4
sg5
(iQStates
PrevAction
p524
(dp525
g8
I5
sg9
I0
sg10
I1
sg11
I5
sg12
I0
sg13
I0
sg14
I0
sg15
I1
sbsg16
I1
sbg240
tp526
F-119.0
s((iQStates
QState
p527
(dp528
g3
I0
sg4
I3
sg5
(iQStates
PrevAction
p529
(dp530
g8
I3
sg9
I0
sg10
I1
sg11
I0
sg12
I0
sg13
I1
sg14
I1
sg15
I0
sbsg16
I2
sbg234
tp531
F80.0
s((iQStates
QState
p532
(dp533
g3
I0
sg4
I3
sg5
(iQStates
PrevAction
p534
(dp535
g8
I0
sg9
I0
sg10
I0
sg11
I0
sg12
I0
sg13
I0
sg14
I1
sg15
I0
sbsg16
I1
sbg165
tp536
F-12.0
s((iQStates
QState
p537
(dp538
g3
I0
sg4
I3
sg5
(iQStates
PrevAction
p539
(dp540
g8
I0
sg9
I0
sg10
I0
sg11
I1
sg12
I0
sg13
I0
sg14
I0
sg15
I1
sbsg16
I2
sbg68
tp541
F-227.6
s((iQStates
QState
p542
(dp543
g3
I1
sg4
I3
sg5
(iQStates
PrevAction
p544
(dp545
g8
I3
sg9
I0
sg10
I1
sg11
I0
sg12
I0
sg13
I1
sg14
I1
sg15
I0
sbsg16
I4
sbS'BET20'
p546
tp547
F-117.0
s((iQStates
QState
p548
(dp549
g3
I0
sg4
I0
sg5
(iQStates
PrevAction
p550
(dp551
g8
I0
sg9
I1
sg10
I0
sg11
I2
sg12
I1
sg13
I0
sg14
I0
sg15
I0
sbsg16
I2
sbg74
tp552
F-38.0
s((iQStates
QState
p553
(dp554
g3
I0
sg4
I0
sg5
(iQStates
PrevAction
p555
(dp556
g8
I3
sg9
I0
sg10
I0
sg11
I0
sg12
I0
sg13
I1
sg14
I1
sg15
I0
sbsg16
I3
sbS'BET90'
p557
tp558
F-173.0
s((iQStates
QState
p559
(dp560
g3
I0
sg4
I4
sg5
(iQStates
PrevAction
p561
(dp562
g8
I0
sg9
I0
sg10
I0
sg11
I3
sg12
I0
sg13
I0
sg14
I0
sg15
I1
sbsg16
I1
sbg182
tp563
F-66.0
s((iQStates
QState
p564
(dp565
g3
I1
sg4
I0
sg5
(iQStates
PrevAction
p566
(dp567
g8
I5
sg9
I0
sg10
I0
sg11
I1
sg12
I1
sg13
I1
sg14
I2
sg15
I0
sbsg16
I2
sbg445
tp568
F63.0
s((iQStates
QState
p569
(dp570
g3
I0
sg4
I0
sg5
(iQStates
PrevAction
p571
(dp572
g8
I0
sg9
I0
sg10
I1
sg11
I0
sg12
I0
sg13
I0
sg14
I0
sg15
I0
sbsg16
I1
sbg23
tp573
F-105.6
s((iQStates
QState
p574
(dp575
g3
I0
sg4
I0
sg5
(iQStates
PrevAction
p576
(dp577
g8
I1
sg9
I0
sg10
I0
sg11
I0
sg12
I0
sg13
I0
sg14
I1
sg15
I0
sbsg16
I2
sbg176
tp578
F-75.6
s((iQStates
QState
p579
(dp580
g3
I0
sg4
I0
sg5
(iQStates
PrevAction
p581
(dp582
g8
I0
sg9
I0
sg10
I0
sg11
I6
sg12
I2
sg13
I0
sg14
I0
sg15
I0
sbsg16
I1
sbg127
tp583
F-87.0
s((iQStates
QState
p584
(dp585
g3
I1
sg4
I0
sg5
(iQStates
PrevAction
p586
(dp587
g8
I0
sg9
I0
sg10
I1
sg11
I0
sg12
I0
sg13
I0
sg14
I0
sg15
I1
sbsg16
I3
sbg198
tp588
F-121.0
s((iQStates
QState
p589
(dp590
g3
I0
sg4
I0
sg5
(iQStates
PrevAction
p591
(dp592
g8
I0
sg9
I1
sg10
I0
sg11
I0
sg12
I0
sg13
I0
sg14
I0
sg15
I0
sbsg16
I3
sbg557
tp593
F18.0
s((iQStates
QState
p594
(dp595
g3
I0
sg4
I5
sg5
(iQStates
PrevAction
p596
(dp597
g8
I0
sg9
I0
sg10
I0
sg11
I5
sg12
I0
sg13
I0
sg14
I0
sg15
I1
sbsg16
I0
sbg80
tp598
F-245.0
s((iQStates
QState
p599
(dp600
g3
I1
sg4
I0
sg5
(iQStates
PrevAction
p601
(dp602
g8
I0
sg9
I1
sg10
I0
sg11
I3
sg12
I1
sg13
I0
sg14
I0
sg15
I1
sbsg16
I2
sbg198
tp603
F47.0
s((iQStates
QState
p604
(dp605
g3
I1
sg4
I0
sg5
(iQStates
PrevAction
p606
(dp607
g8
I0
sg9
I0
sg10
I1
sg11
I0
sg12
I0
sg13
I1
sg14
I0
sg15
I0
sbsg16
I2
sbg57
tp608
F-12.0
s((iQStates
QState
p609
(dp610
g3
I1
sg4
I0
sg5
(iQStates
PrevAction
p611
(dp612
g8
I0
sg9
I0
sg10
I1
sg11
I0
sg12
I0
sg13
I0
sg14
I0
sg15
I1
sbsg16
I1
sbg198
tp613
F17.0
s((iQStates
QState
p614
(dp615
g3
I0
sg4
I0
sg5
(iQStates
PrevAction
p616
(dp617
g8
I0
sg9
I0
sg10
I0
sg11
I0
sg12
I0
sg13
I0
sg14
I0
sg15
I0
sbsg16
I3
sbg387
tp618
F-12.64
s((iQStates
QState
p619
(dp620
g3
I0
sg4
I4
sg5
(iQStates
PrevAction
p621
(dp622
g8
I0
sg9
I0
sg10
I1
sg11
I0
sg12
I0
sg13
I0
sg14
I0
sg15
I0
sbsg16
I1
sbg182
tp623
F-88.0
s((iQStates
QState
p624
(dp625
g3
I1
sg4
I0
sg5
(iQStates
PrevAction
p626
(dp627
g8
I0
sg9
I0
sg10
I1
sg11
I0
sg12
I0
sg13
I1
sg14
I0
sg15
I0
sbsg16
I1
sbg98
tp628
F-32.0
s((iQStates
QState
p629
(dp630
g3
I0
sg4
I0
sg5
(iQStates
PrevAction
p631
(dp632
g8
I4
sg9
I0
sg10
I0
sg11
I2
sg12
I0
sg13
I0
sg14
I1
sg15
I1
sbsg16
I3
sbg127
tp633
F-80.0
s((iQStates
QState
p634
(dp635
g3
I0
sg4
I3
sg5
(iQStates
PrevAction
p636
(dp637
g8
I5
sg9
I0
sg10
I1
sg11
I0
sg12
I0
sg13
I1
sg14
I1
sg15
I0
sbsg16
I4
sbg127
tp638
F222.0
s((iQStates
QState
p639
(dp640
g3
I1
sg4
I0
sg5
(iQStates
PrevAction
p641
(dp642
g8
I0
sg9
I0
sg10
I1
sg11
I0
sg12
I0
sg13
I0
sg14
I0
sg15
I1
sbsg16
I3
sbg98
tp643
F4.599999999999998
s((iQStates
QState
p644
(dp645
g3
I1
sg4
I4
sg5
(iQStates
PrevAction
p646
(dp647
g8
I0
sg9
I0
sg10
I0
sg11
I4
sg12
I0
sg13
I0
sg14
I0
sg15
I2
sbsg16
I2
sbg80
tp648
F66.0
s((iQStates
QState
p649
(dp650
g3
I0
sg4
I0
sg5
(iQStates
PrevAction
p651
(dp652
g8
I0
sg9
I0
sg10
I0
sg11
I0
sg12
I0
sg13
I0
sg14
I0
sg15
I0
sbsg16
I2
sbg29
tp653
F-18.28
s((iQStates
QState
p654
(dp655
g3
I0
sg4
I0
sg5
(iQStates
PrevAction
p656
(dp657
g8
I5
sg9
I0
sg10
I0
sg11
I4
sg12
I1
sg13
I0
sg14
I2
sg15
I0
sbsg16
I2
sbg121
tp658
F-69.0
s((iQStates
QState
p659
(dp660
g3
I0
sg4
I0
sg5
(iQStates
PrevAction
p661
(dp662
g8
I0
sg9
I0
sg10
I0
sg11
I0
sg12
I0
sg13
I0
sg14
I0
sg15
I0
sbsg16
I2
sbg127
tp663
F-7.0
s((iQStates
QState
p664
(dp665
g3
I1
sg4
I0
sg5
(iQStates
PrevAction
p666
(dp667
g8
I1
sg9
I0
sg10
I1
sg11
I1
sg12
I1
sg13
I0
sg14
I0
sg15
I0
sbsg16
I3
sbS'BET80'
p668
tp669
F-58.0
s((iQStates
QState
p670
(dp671
g3
I0
sg4
I0
sg5
(iQStates
PrevAction
p672
(dp673
g8
I0
sg9
I0
sg10
I1
sg11
I0
sg12
I0
sg13
I0
sg14
I0
sg15
I0
sbsg16
I2
sbg557
tp674
F-90.0
s((iQStates
QState
p675
(dp676
g3
I1
sg4
I0
sg5
(iQStates
PrevAction
p677
(dp678
g8
I2
sg9
I0
sg10
I0
sg11
I1
sg12
I1
sg13
I0
sg14
I1
sg15
I0
sbsg16
I2
sbg40
tp679
F36.599999999999994
s((iQStates
QState
p680
(dp681
g3
I1
sg4
I0
sg5
(iQStates
PrevAction
p682
(dp683
g8
I0
sg9
I1
sg10
I0
sg11
I1
sg12
I1
sg13
I0
sg14
I0
sg15
I0
sbsg16
I4
sbg51
tp684
F93.8
s((iQStates
QState
p685
(dp686
g3
I0
sg4
I0
sg5
(iQStates
PrevAction
p687
(dp688
g8
I0
sg9
I0
sg10
I0
sg11
I0
sg12
I0
sg13
I0
sg14
I0
sg15
I0
sbsg16
I2
sbg240
tp689
F-17.6
s((iQStates
QState
p690
(dp691
g3
I0
sg4
I0
sg5
(iQStates
PrevAction
p692
(dp693
g8
I3
sg9
I0
sg10
I0
sg11
I0
sg12
I0
sg13
I1
sg14
I1
sg15
I0
sbsg16
I2
sbg23
tp694
F-50.0
s((iQStates
QState
p695
(dp696
g3
I0
sg4
I0
sg5
(iQStates
PrevAction
p697
(dp698
g8
I4
sg9
I0
sg10
I0
sg11
I2
sg12
I0
sg13
I0
sg14
I1
sg15
I1
sbsg16
I3
sbg92
tp699
F-60.0
s((iQStates
QState
p700
(dp701
g3
I0
sg4
I3
sg5
(iQStates
PrevAction
p702
(dp703
g8
I2
sg9
I0
sg10
I1
sg11
I0
sg12
I0
sg13
I1
sg14
I0
sg15
I0
sbsg16
I0
sbg23
tp704
F-32.0
s((iQStates
QState
p705
(dp706
g3
I0
sg4
I0
sg5
(iQStates
PrevAction
p707
(dp708
g8
I3
sg9
I0
sg10
I0
sg11
I2
sg12
I0
sg13
I0
sg14
I1
sg15
I1
sbsg16
I1
sbg115
tp709
F-37.0
s((iQStates
QState
p710
(dp711
g3
I1
sg4
I0
sg5
(iQStates
PrevAction
p712
(dp713
g8
I4
sg9
I0
sg10
I1
sg11
I2
sg12
I0
sg13
I0
sg14
I1
sg15
I2
sbsg16
I3
sbg546
tp714
F-121.0
s((iQStates
QState
p715
(dp716
g3
I1
sg4
I0
sg5
(iQStates
PrevAction
p717
(dp718
g8
I0
sg9
I0
sg10
I1
sg11
I0
sg12
I0
sg13
I0
sg14
I0
sg15
I1
sbsg16
I3
sbg668
tp719
F-8.0
s((iQStates
QState
p720
(dp721
g3
I0
sg4
I3
sg5
(iQStates
PrevAction
p722
(dp723
g8
I0
sg9
I0
sg10
I0
sg11
I4
sg12
I0
sg13
I0
sg14
I0
sg15
I1
sbsg16
I1
sbg121
tp724
F-119.0
s((iQStates
QState
p725
(dp726
g3
I1
sg4
I3
sg5
(iQStates
PrevAction
p727
(dp728
g8
I0
sg9
I1
sg10
I0
sg11
I5
sg12
I0
sg13
I0
sg14
I0
sg15
I2
sbsg16
I0
sbg98
tp729
F92.0
s((iQStates
QState
p730
(dp731
g3
I1
sg4
I0
sg5
(iQStates
PrevAction
p732
(dp733
g8
I2
sg9
I0
sg10
I0
sg11
I1
sg12
I1
sg13
I0
sg14
I1
sg15
I0
sbsg16
I1
sbg557
tp734
F-29.0
s((iQStates
QState
p735
(dp736
g3
I1
sg4
I0
sg5
(iQStates
PrevAction
p737
(dp738
g8
I0
sg9
I1
sg10
I0
sg11
I0
sg12
I0
sg13
I0
sg14
I0
sg15
I1
sbsg16
I3
sbg86
tp739
F-54.6
s((iQStates
QState
p740
(dp741
g3
I0
sg4
I0
sg5
(iQStates
PrevAction
p742
(dp743
g8
I0
sg9
I1
sg10
I0
sg11
I3
sg12
I1
sg13
I0
sg14
I0
sg15
I0
sbsg16
I2
sbg445
tp744
F-40.0
s((iQStates
QState
p745
(dp746
g3
I0
sg4
I3
sg5
(iQStates
PrevAction
p747
(dp748
g8
I0
sg9
I0
sg10
I0
sg11
I5
sg12
I0
sg13
I0
sg14
I0
sg15
I1
sbsg16
I3
sbg23
tp749
F-245.0
s((iQStates
QState
p750
(dp751
g3
I1
sg4
I3
sg5
(iQStates
PrevAction
p752
(dp753
g8
I6
sg9
I0
sg10
I0
sg11
I0
sg12
I0
sg13
I0
sg14
I1
sg15
I0
sbsg16
I3
sbg668
tp754
F-173.0
s((iQStates
QState
p755
(dp756
g3
I0
sg4
I3
sg5
(iQStates
PrevAction
p757
(dp758
g8
I4
sg9
I0
sg10
I2
sg11
I0
sg12
I0
sg13
I1
sg14
I0
sg15
I0
sbsg16
I2
sbg109
tp759
F-80.0
s((iQStates
QState
p760
(dp761
g3
I1
sg4
I3
sg5
(iQStates
PrevAction
p762
(dp763
g8
I4
sg9
I0
sg10
I2
sg11
I0
sg12
I0
sg13
I0
sg14
I0
sg15
I0
sbsg16
I2
sbg234
tp764
F-107.0
s((iQStates
QState
p765
(dp766
g3
I0
sg4
I3
sg5
(iQStates
PrevAction
p767
(dp768
g8
I2
sg9
I0
sg10
I1
sg11
I0
sg12
I0
sg13
I1
sg14
I0
sg15
I0
sbsg16
I4
sbS'BET40'
p769
tp770
F222.0
s((iQStates
QState
p771
(dp772
g3
I0
sg4
I4
sg5
(iQStates
PrevAction
p773
(dp774
g8
I5
sg9
I0
sg10
I1
sg11
I0
sg12
I0
sg13
I0
sg14
I0
sg15
I0
sbsg16
I5
sbg74
tp775
F222.0
s((iQStates
QState
p776
(dp777
g3
I0
sg4
I0
sg5
(iQStates
PrevAction
p778
(dp779
g8
I3
sg9
I0
sg10
I0
sg11
I2
sg12
I0
sg13
I0
sg14
I1
sg15
I1
sbsg16
I2
sbg127
tp780
F-61.0
s((iQStates
QState
p781
(dp782
g3
I1
sg4
I3
sg5
(iQStates
PrevAction
p783
(dp784
g8
I5
sg9
I0
sg10
I1
sg11
I5
sg12
I0
sg13
I0
sg14
I1
sg15
I2
sbsg16
I2
sbg40
tp785
F-130.0
s((iQStates
QState
p786
(dp787
g3
I0
sg4
I0
sg5
(iQStates
PrevAction
p788
(dp789
g8
I3
sg9
I0
sg10
I2
sg11
I3
sg12
I1
sg13
I0
sg14
I0
sg15
I0
sbsg16
I2
sbg86
tp790
F-16.0
s((iQStates
QState
p791
(dp792
g3
I0
sg4
I6
sg5
(iQStates
PrevAction
p793
(dp794
g8
I0
sg9
I0
sg10
I0
sg11
I0
sg12
I0
sg13
I0
sg14
I0
sg15
I0
sbsg16
I0
sbg115
tp795
F-289.0
s((iQStates
QState
p796
(dp797
g3
I0
sg4
I3
sg5
(iQStates
PrevAction
p798
(dp799
g8
I0
sg9
I1
sg10
I0
sg11
I3
sg12
I0
sg13
I0
sg14
I0
sg15
I1
sbsg16
I3
sbg23
tp800
F-126.0
s((iQStates
QState
p801
(dp802
g3
I1
sg4
I0
sg5
(iQStates
PrevAction
p803
(dp804
g8
I4
sg9
I0
sg10
I0
sg11
I4
sg12
I0
sg13
I0
sg14
I2
sg15
I2
sbsg16
I2
sbg445
tp805
F-98.0
s((iQStates
QState
p806
(dp807
g3
I1
sg4
I0
sg5
(iQStates
PrevAction
p808
(dp809
g8
I0
sg9
I1
sg10
I0
sg11
I1
sg12
I1
sg13
I0
sg14
I0
sg15
I0
sbsg16
I3
sbg115
tp810
F59.0
s((iQStates
QState
p811
(dp812
g3
I1
sg4
I3
sg5
(iQStates
PrevAction
p813
(dp814
g8
I0
sg9
I1
sg10
I0
sg11
I2
sg12
I1
sg13
I0
sg14
I0
sg15
I1
sbsg16
I0
sbg198
tp815
F-78.0
s((iQStates
QState
p816
(dp817
g3
I1
sg4
I3
sg5
(iQStates
PrevAction
p818
(dp819
g8
I4
sg9
I0
sg10
I1
sg11
I2
sg12
I0
sg13
I0
sg14
I1
sg15
I2
sbsg16
I1
sbg271
tp820
F-82.0
s((iQStates
QState
p821
(dp822
g3
I0
sg4
I0
sg5
(iQStates
PrevAction
p823
(dp824
g8
I0
sg9
I0
sg10
I1
sg11
I0
sg12
I0
sg13
I0
sg14
I0
sg15
I0
sbsg16
I2
sbg769
tp825
F-90.0
s((iQStates
QState
p826
(dp827
g3
I0
sg4
I3
sg5
(iQStates
PrevAction
p828
(dp829
g8
I5
sg9
I0
sg10
I0
sg11
I0
sg12
I0
sg13
I1
sg14
I1
sg15
I0
sbsg16
I4
sbg92
tp830
F-98.0
s((iQStates
QState
p831
(dp832
g3
I1
sg4
I3
sg5
(iQStates
PrevAction
p833
(dp834
g8
I0
sg9
I1
sg10
I0
sg11
I2
sg12
I0
sg13
I0
sg14
I0
sg15
I2
sbsg16
I4
sbg387
tp835
F-31.0
s((iQStates
QState
p836
(dp837
g3
I0
sg4
I0
sg5
(iQStates
PrevAction
p838
(dp839
g8
I1
sg9
I0
sg10
I0
sg11
I0
sg12
I0
sg13
I0
sg14
I1
sg15
I0
sbsg16
I2
sbg121
tp840
F-69.0
s((iQStates
QState
p841
(dp842
g3
I1
sg4
I0
sg5
(iQStates
PrevAction
p843
(dp844
g8
I0
sg9
I0
sg10
I1
sg11
I0
sg12
I0
sg13
I0
sg14
I0
sg15
I1
sbsg16
I2
sbg144
tp845
F-8.0
s((iQStates
QState
p846
(dp847
g3
I0
sg4
I4
sg5
(iQStates
PrevAction
p848
(dp849
g8
I0
sg9
I0
sg10
I0
sg11
I0
sg12
I0
sg13
I0
sg14
I0
sg15
I0
sbsg16
I5
sbg86
tp850
F-41.0
s((iQStates
QState
p851
(dp852
g3
I0
sg4
I0
sg5
(iQStates
PrevAction
p853
(dp854
g8
I3
sg9
I0
sg10
I0
sg11
I2
sg12
I0
sg13
I0
sg14
I1
sg15
I1
sbsg16
I1
sbg144
tp855
F-130.0
s((iQStates
QState
p856
(dp857
g3
I0
sg4
I0
sg5
(iQStates
PrevAction
p858
(dp859
g8
I0
sg9
I1
sg10
I0
sg11
I2
sg12
I1
sg13
I0
sg14
I0
sg15
I0
sbsg16
I2
sbg23
tp860
F-80.0
s((iQStates
QState
p861
(dp862
g3
I0
sg4
I3
sg5
(iQStates
PrevAction
p863
(dp864
g8
I0
sg9
I0
sg10
I1
sg11
I0
sg12
I0
sg13
I0
sg14
I0
sg15
I0
sbsg16
I2
sbg769
tp865
F26.0
s((iQStates
QState
p866
(dp867
g3
I0
sg4
I0
sg5
(iQStates
PrevAction
p868
(dp869
g8
I1
sg9
I0
sg10
I0
sg11
I0
sg12
I0
sg13
I0
sg14
I1
sg15
I0
sbsg16
I2
sbg138
tp870
F10.383999999999997
s((iQStates
QState
p871
(dp872
g3
I0
sg4
I3
sg5
(iQStates
PrevAction
p873
(dp874
g8
I0
sg9
I0
sg10
I0
sg11
I0
sg12
I0
sg13
I1
sg14
I0
sg15
I0
sbsg16
I3
sbg240
tp875
F-69.0
s((iQStates
QState
p876
(dp877
g3
I0
sg4
I0
sg5
(iQStates
PrevAction
p878
(dp879
g8
I1
sg9
I0
sg10
I0
sg11
I0
sg12
I0
sg13
I0
sg14
I1
sg15
I0
sbsg16
I2
sbg51
tp880
F-24.2
s((iQStates
QState
p881
(dp882
g3
I1
sg4
I0
sg5
(iQStates
PrevAction
p883
(dp884
g8
I0
sg9
I0
sg10
I1
sg11
I0
sg12
I0
sg13
I1
sg14
I0
sg15
I0
sbsg16
I2
sbg165
tp885
F-48.0
s((iQStates
QState
p886
(dp887
g3
I0
sg4
I0
sg5
(iQStates
PrevAction
p888
(dp889
g8
I1
sg9
I0
sg10
I0
sg11
I0
sg12
I0
sg13
I0
sg14
I1
sg15
I0
sbsg16
I2
sbg668
tp890
F9.600000000000001
s((iQStates
QState
p891
(dp892
g3
I0
sg4
I0
sg5
(iQStates
PrevAction
p893
(dp894
g8
I0
sg9
I0
sg10
I1
sg11
I0
sg12
I0
sg13
I0
sg14
I0
sg15
I0
sbsg16
I1
sbg127
tp895
F-2.0
s((iQStates
QState
p896
(dp897
g3
I0
sg4
I0
sg5
(iQStates
PrevAction
p898
(dp899
g8
I0
sg9
I1
sg10
I0
sg11
I0
sg12
I0
sg13
I0
sg14
I0
sg15
I0
sbsg16
I2
sbg240
tp900
F16.0
s((iQStates
QState
p901
(dp902
g3
I1
sg4
I0
sg5
(iQStates
PrevAction
p903
(dp904
g8
I2
sg9
I0
sg10
I0
sg11
I0
sg12
I0
sg13
I0
sg14
I1
sg15
I1
sbsg16
I3
sbg115
tp905
F-23.0
s((iQStates
QState
p906
(dp907
g3
I0
sg4
I0
sg5
(iQStates
PrevAction
p908
(dp909
g8
I2
sg9
I0
sg10
I0
sg11
I0
sg12
I0
sg13
I1
sg14
I1
sg15
I0
sbsg16
I1
sbg109
tp910
F-107.0
s((iQStates
QState
p911
(dp912
g3
I0
sg4
I3
sg5
(iQStates
PrevAction
p913
(dp914
g8
I0
sg9
I0
sg10
I0
sg11
I3
sg12
I0
sg13
I0
sg14
I0
sg15
I1
sbsg16
I0
sbg387
tp915
F-23.0
s((iQStates
QState
p916
(dp917
g3
I0
sg4
I0
sg5
(iQStates
PrevAction
p918
(dp919
g8
I6
sg9
I0
sg10
I2
sg11
I5
sg12
I1
sg13
I0
sg14
I1
sg15
I1
sbsg16
I1
sbg271
tp920
F-80.0
s((iQStates
QState
p921
(dp922
g3
I0
sg4
I0
sg5
(iQStates
PrevAction
p923
(dp924
g8
I0
sg9
I0
sg10
I0
sg11
I0
sg12
I0
sg13
I0
sg14
I0
sg15
I0
sbsg16
I3
sbg115
tp925
F-52.8
s((iQStates
QState
p926
(dp927
g3
I0
sg4
I0
sg5
(iQStates
PrevAction
p928
(dp929
g8
I3
sg9
I0
sg10
I0
sg11
I2
sg12
I0
sg13
I0
sg14
I1
sg15
I1
sbsg16
I3
sbg557
tp930
F-119.4
s((iQStates
QState
p931
(dp932
g3
I0
sg4
I0
sg5
(iQStates
PrevAction
p933
(dp934
g8
I0
sg9
I0
sg10
I0
sg11
I0
sg12
I0
sg13
I0
sg14
I0
sg15
I1
sbsg16
I2
sbg138
tp935
F6.0
s((iQStates
QState
p936
(dp937
g3
I0
sg4
I4
sg5
(iQStates
PrevAction
p938
(dp939
g8
I0
sg9
I0
sg10
I0
sg11
I2
sg12
I0
sg13
I0
sg14
I0
sg15
I1
sbsg16
I1
sbg29
tp940
F-289.0
s((iQStates
QState
p941
(dp942
g3
I0
sg4
I0
sg5
(iQStates
PrevAction
p943
(dp944
g8
I0
sg9
I0
sg10
I0
sg11
I0
sg12
I0
sg13
I0
sg14
I0
sg15
I0
sbsg16
I2
sbg546
tp945
F52.0
s((iQStates
QState
p946
(dp947
g3
I0
sg4
I0
sg5
(iQStates
PrevAction
p948
(dp949
g8
I3
sg9
I0
sg10
I1
sg11
I2
sg12
I0
sg13
I0
sg14
I1
sg15
I1
sbsg16
I1
sbg445
tp950
F-80.0
s((iQStates
QState
p951
(dp952
g3
I0
sg4
I0
sg5
(iQStates
PrevAction
p953
(dp954
g8
I0
sg9
I0
sg10
I0
sg11
I2
sg12
I1
sg13
I0
sg14
I0
sg15
I0
sbsg16
I3
sbg74
tp955
F56.0
s((iQStates
QState
p956
(dp957
g3
I1
sg4
I3
sg5
(iQStates
PrevAction
p958
(dp959
g8
I0
sg9
I1
sg10
I0
sg11
I2
sg12
I0
sg13
I0
sg14
I0
sg15
I2
sbsg16
I5
sbg557
tp960
F62.0
s((iQStates
QState
p961
(dp962
g3
I1
sg4
I3
sg5
(iQStates
PrevAction
p963
(dp964
g8
I2
sg9
I0
sg10
I2
sg11
I0
sg12
I0
sg13
I1
sg14
I0
sg15
I0
sbsg16
I2
sbg127
tp965
F23.0
s((iQStates
QState
p966
(dp967
g3
I0
sg4
I0
sg5
(iQStates
PrevAction
p968
(dp969
g8
I0
sg9
I0
sg10
I1
sg11
I0
sg12
I0
sg13
I0
sg14
I0
sg15
I0
sbsg16
I3
sbg240
tp970
F28.0
s((iQStates
QState
p971
(dp972
g3
I0
sg4
I3
sg5
(iQStates
PrevAction
p973
(dp974
g8
I0
sg9
I1
sg10
I0
sg11
I2
sg12
I0
sg13
I0
sg14
I0
sg15
I1
sbsg16
I5
sbg98
tp975
F-41.0
s((iQStates
QState
p976
(dp977
g3
I0
sg4
I0
sg5
(iQStates
PrevAction
p978
(dp979
g8
I0
sg9
I0
sg10
I0
sg11
I2
sg12
I1
sg13
I0
sg14
I0
sg15
I0
sbsg16
I1
sbg115
tp980
F-30.0
s((iQStates
QState
p981
(dp982
g3
I0
sg4
I0
sg5
(iQStates
PrevAction
p983
(dp984
g8
I0
sg9
I0
sg10
I0
sg11
I0
sg12
I0
sg13
I0
sg14
I0
sg15
I0
sbsg16
I1
sbg769
tp985
F-41.33471999999999
s((iQStates
QState
p986
(dp987
g3
I1
sg4
I0
sg5
(iQStates
PrevAction
p988
(dp989
g8
I0
sg9
I0
sg10
I1
sg11
I0
sg12
I0
sg13
I1
sg14
I0
sg15
I0
sbsg16
I2
sbg182
tp990
F6.0
s((iQStates
QState
p991
(dp992
g3
I0
sg4
I0
sg5
(iQStates
PrevAction
p993
(dp994
g8
I0
sg9
I0
sg10
I0
sg11
I0
sg12
I0
sg13
I0
sg14
I0
sg15
I1
sbsg16
I1
sbg127
tp995
F-48.0
s((iQStates
QState
p996
(dp997
g3
I0
sg4
I0
sg5
(iQStates
PrevAction
p998
(dp999
g8
I0
sg9
I1
sg10
I0
sg11
I0
sg12
I0
sg13
I0
sg14
I0
sg15
I0
sbsg16
I2
sbg109
tp1000
F45.2
s((iQStates
QState
p1001
(dp1002
g3
I0
sg4
I0
sg5
(iQStates
PrevAction
p1003
(dp1004
g8
I0
sg9
I1
sg10
I0
sg11
I3
sg12
I1
sg13
I0
sg14
I0
sg15
I0
sbsg16
I3
sbg68
tp1005
F39.0
s((iQStates
QState
p1006
(dp1007
g3
I1
sg4
I0
sg5
(iQStates
PrevAction
p1008
(dp1009
g8
I4
sg9
I1
sg10
I1
sg11
I6
sg12
I1
sg13
I0
sg14
I1
sg15
I2
sbsg16
I3
sbg668
tp1010
F-121.0
s((iQStates
QState
p1011
(dp1012
g3
I0
sg4
I0
sg5
(iQStates
PrevAction
p1013
(dp1014
g8
I0
sg9
I0
sg10
I1
sg11
I0
sg12
I0
sg13
I0
sg14
I0
sg15
I0
sbsg16
I2
sbg176
tp1015
F10.0
s((iQStates
QState
p1016
(dp1017
g3
I0
sg4
I0
sg5
(iQStates
PrevAction
p1018
(dp1019
g8
I1
sg9
I0
sg10
I0
sg11
I0
sg12
I0
sg13
I0
sg14
I1
sg15
I0
sbsg16
I1
sbg557
tp1020
F-34.0
s((iQStates
QState
p1021
(dp1022
g3
I1
sg4
I3
sg5
(iQStates
PrevAction
p1023
(dp1024
g8
I3
sg9
I0
sg10
I1
sg11
I0
sg12
I0
sg13
I1
sg14
I1
sg15
I0
sbsg16
I5
sbg86
tp1025
F37.0
s((iQStates
QState
p1026
(dp1027
g3
I0
sg4
I4
sg5
(iQStates
PrevAction
p1028
(dp1029
g8
I5
sg9
I0
sg10
I1
sg11
I0
sg12
I0
sg13
I0
sg14
I0
sg15
I0
sbsg16
I5
sbg17
tp1030
F80.0
s((iQStates
QState
p1031
(dp1032
g3
I0
sg4
I0
sg5
(iQStates
PrevAction
p1033
(dp1034
g8
I1
sg9
I0
sg10
I0
sg11
I0
sg12
I0
sg13
I0
sg14
I1
sg15
I0
sbsg16
I2
sbg769
tp1035
F-46.88
s((iQStates
QState
p1036
(dp1037
g3
I0
sg4
I0
sg5
(iQStates
PrevAction
p1038
(dp1039
g8
I0
sg9
I0
sg10
I1
sg11
I0
sg12
I0
sg13
I0
sg14
I0
sg15
I0
sbsg16
I3
sbg40
tp1040
F-8.0
s((iQStates
QState
p1041
(dp1042
g3
I1
sg4
I4
sg5
(iQStates
PrevAction
p1043
(dp1044
g8
I4
sg9
I0
sg10
I1
sg11
I0
sg12
I0
sg13
I0
sg14
I1
sg15
I0
sbsg16
I4
sbg557
tp1045
F-117.0
s((iQStates
QState
p1046
(dp1047
g3
I0
sg4
I0
sg5
(iQStates
PrevAction
p1048
(dp1049
g8
I3
sg9
I0
sg10
I0
sg11
I0
sg12
I0
sg13
I1
sg14
I1
sg15
I0
sbsg16
I1
sbg546
tp1050
F-171.0
s((iQStates
QState
p1051
(dp1052
g3
I0
sg4
I0
sg5
(iQStates
PrevAction
p1053
(dp1054
g8
I0
sg9
I0
sg10
I0
sg11
I0
sg12
I0
sg13
I0
sg14
I0
sg15
I0
sbsg16
I1
sbg271
tp1055
F-77.88
s((iQStates
QState
p1056
(dp1057
g3
I0
sg4
I4
sg5
(iQStates
PrevAction
p1058
(dp1059
g8
I0
sg9
I0
sg10
I0
sg11
I1
sg12
I0
sg13
I0
sg14
I0
sg15
I1
sbsg16
I5
sbg182
tp1060
F33.0
s((iQStates
QState
p1061
(dp1062
g3
I0
sg4
I5
sg5
(iQStates
PrevAction
p1063
(dp1064
g8
I0
sg9
I0
sg10
I1
sg11
I0
sg12
I0
sg13
I0
sg14
I0
sg15
I1
sbsg16
I0
sbg271
tp1065
F-32.0
s((iQStates
QState
p1066
(dp1067
g3
I0
sg4
I0
sg5
(iQStates
PrevAction
p1068
(dp1069
g8
I0
sg9
I0
sg10
I0
sg11
I1
sg12
I1
sg13
I0
sg14
I0
sg15
I0
sbsg16
I2
sbg115
tp1070
F12.0
s((iQStates
QState
p1071
(dp1072
g3
I0
sg4
I4
sg5
(iQStates
PrevAction
p1073
(dp1074
g8
I5
sg9
I0
sg10
I2
sg11
I0
sg12
I0
sg13
I0
sg14
I0
sg15
I0
sbsg16
I0
sbg29
tp1075
F150.0
s((iQStates
QState
p1076
(dp1077
g3
I1
sg4
I0
sg5
(iQStates
PrevAction
p1078
(dp1079
g8
I0
sg9
I1
sg10
I0
sg11
I1
sg12
I1
sg13
I0
sg14
I0
sg15
I0
sbsg16
I2
sbg138
tp1080
F-10.0
s((iQStates
QState
p1081
(dp1082
g3
I0
sg4
I5
sg5
(iQStates
PrevAction
p1083
(dp1084
g8
I0
sg9
I0
sg10
I0
sg11
I4
sg12
I0
sg13
I0
sg14
I0
sg15
I1
sbsg16
I5
sbg17
tp1085
F113.0
s((iQStates
QState
p1086
(dp1087
g3
I0
sg4
I0
sg5
(iQStates
PrevAction
p1088
(dp1089
g8
I0
sg9
I0
sg10
I0
sg11
I3
sg12
I1
sg13
I0
sg14
I0
sg15
I0
sbsg16
I1
sbg23
tp1090
F-87.0
s((iQStates
QState
p1091
(dp1092
g3
I0
sg4
I0
sg5
(iQStates
PrevAction
p1093
(dp1094
g8
I0
sg9
I0
sg10
I1
sg11
I0
sg12
I0
sg13
I0
sg14
I0
sg15
I0
sbsg16
I1
sbg546
tp1095
F40.0
s((iQStates
QState
p1096
(dp1097
g3
I0
sg4
I0
sg5
(iQStates
PrevAction
p1098
(dp1099
g8
I4
sg9
I1
sg10
I0
sg11
I6
sg12
I2
sg13
I0
sg14
I1
sg15
I0
sbsg16
I3
sbg557
tp1100
F-154.0
s((iQStates
QState
p1101
(dp1102
g3
I1
sg4
I0
sg5
(iQStates
PrevAction
p1103
(dp1104
g8
I0
sg9
I0
sg10
I1
sg11
I0
sg12
I0
sg13
I0
sg14
I0
sg15
I1
sbsg16
I1
sbg121
tp1105
F-45.0
s((iQStates
QState
p1106
(dp1107
g3
I0
sg4
I3
sg5
(iQStates
PrevAction
p1108
(dp1109
g8
I5
sg9
I0
sg10
I1
sg11
I0
sg12
I0
sg13
I1
sg14
I1
sg15
I0
sbsg16
I4
sbg234
tp1110
F99.0
s((iQStates
QState
p1111
(dp1112
g3
I1
sg4
I3
sg5
(iQStates
PrevAction
p1113
(dp1114
g8
I0
sg9
I0
sg10
I1
sg11
I0
sg12
I0
sg13
I0
sg14
I0
sg15
I0
sbsg16
I0
sbg109
tp1115
F-171.0
s((iQStates
QState
p1116
(dp1117
g3
I0
sg4
I0
sg5
(iQStates
PrevAction
p1118
(dp1119
g8
I0
sg9
I0
sg10
I0
sg11
I0
sg12
I0
sg13
I0
sg14
I0
sg15
I0
sbsg16
I1
sbg74
tp1120
F-71.65599999999999
s((iQStates
QState
p1121
(dp1122
g3
I1
sg4
I3
sg5
(iQStates
PrevAction
p1123
(dp1124
g8
I0
sg9
I1
sg10
I0
sg11
I2
sg12
I0
sg13
I0
sg14
I0
sg15
I2
sbsg16
I0
sbg121
tp1125
F-23.0
s((iQStates
QState
p1126
(dp1127
g3
I0
sg4
I3
sg5
(iQStates
PrevAction
p1128
(dp1129
g8
I0
sg9
I0
sg10
I0
sg11
I5
sg12
I0
sg13
I0
sg14
I0
sg15
I1
sbsg16
I1
sbg98
tp1130
F-78.0
s((iQStates
QState
p1131
(dp1132
g3
I0
sg4
I0
sg5
(iQStates
PrevAction
p1133
(dp1134
g8
I0
sg9
I1
sg10
I0
sg11
I3
sg12
I1
sg13
I0
sg14
I0
sg15
I0
sbsg16
I1
sbg546
tp1135
F16.2
s((iQStates
QState
p1136
(dp1137
g3
I1
sg4
I3
sg5
(iQStates
PrevAction
p1138
(dp1139
g8
I0
sg9
I0
sg10
I0
sg11
I4
sg12
I0
sg13
I0
sg14
I0
sg15
I2
sbsg16
I1
sbg86
tp1140
F-60.0
s((iQStates
QState
p1141
(dp1142
g3
I0
sg4
I3
sg5
(iQStates
PrevAction
p1143
(dp1144
g8
I0
sg9
I0
sg10
I0
sg11
I3
sg12
I0
sg13
I0
sg14
I0
sg15
I1
sbsg16
I3
sbg433
tp1145
F113.0
s((iQStates
QState
p1146
(dp1147
g3
I0
sg4
I3
sg5
(iQStates
PrevAction
p1148
(dp1149
g8
I2
sg9
I0
sg10
I1
sg11
I0
sg12
I0
sg13
I1
sg14
I0
sg15
I0
sbsg16
I0
sbg80
tp1150
F10.0
s((iQStates
QState
p1151
(dp1152
g3
I1
sg4
I0
sg5
(iQStates
PrevAction
p1153
(dp1154
g8
I0
sg9
I1
sg10
I0
sg11
I1
sg12
I1
sg13
I0
sg14
I0
sg15
I0
sbsg16
I2
sbg234
tp1155
F14.0
s((iQStates
QState
p1156
(dp1157
g3
I0
sg4
I3
sg5
(iQStates
PrevAction
p1158
(dp1159
g8
I4
sg9
I0
sg10
I1
sg11
I2
sg12
I0
sg13
I0
sg14
I1
sg15
I1
sbsg16
I3
sbg40
tp1160
F-88.0
s((iQStates
QState
p1161
(dp1162
g3
I0
sg4
I3
sg5
(iQStates
PrevAction
p1163
(dp1164
g8
I2
sg9
I0
sg10
I2
sg11
I2
sg12
I0
sg13
I0
sg14
I0
sg15
I1
sbsg16
I1
sbg144
tp1165
F-88.0
s((iQStates
QState
p1166
(dp1167
g3
I0
sg4
I0
sg5
(iQStates
PrevAction
p1168
(dp1169
g8
I1
sg9
I0
sg10
I0
sg11
I0
sg12
I0
sg13
I0
sg14
I1
sg15
I0
sbsg16
I1
sbg92
tp1170
F22.0
s((iQStates
QState
p1171
(dp1172
g3
I0
sg4
I0
sg5
(iQStates
PrevAction
p1173
(dp1174
g8
I5
sg9
I0
sg10
I0
sg11
I3
sg12
I1
sg13
I0
sg14
I1
sg15
I0
sbsg16
I3
sbg40
tp1175
F-153.0
s((iQStates
QState
p1176
(dp1177
g3
I0
sg4
I0
sg5
(iQStates
PrevAction
p1178
(dp1179
g8
I0
sg9
I1
sg10
I0
sg11
I0
sg12
I0
sg13
I0
sg14
I0
sg15
I0
sbsg16
I3
sbg74
tp1180
F39.0
s((iQStates
QState
p1181
(dp1182
g3
I0
sg4
I3
sg5
(iQStates
PrevAction
p1183
(dp1184
g8
I5
sg9
I0
sg10
I3
sg11
I5
sg12
I1
sg13
I0
sg14
I0
sg15
I1
sbsg16
I1
sbg144
tp1185
F-88.0
s((iQStates
QState
p1186
(dp1187
g3
I0
sg4
I3
sg5
(iQStates
PrevAction
p1188
(dp1189
g8
I0
sg9
I0
sg10
I0
sg11
I2
sg12
I1
sg13
I0
sg14
I0
sg15
I0
sbsg16
I2
sbg127
tp1190
F-30.0
s((iQStates
QState
p1191
(dp1192
g3
I0
sg4
I0
sg5
(iQStates
PrevAction
p1193
(dp1194
g8
I0
sg9
I0
sg10
I0
sg11
I0
sg12
I0
sg13
I0
sg14
I0
sg15
I0
sbsg16
I2
sbg557
tp1195
F-36.32
s((iQStates
QState
p1196
(dp1197
g3
I1
sg4
I4
sg5
(iQStates
PrevAction
p1198
(dp1199
g8
I0
sg9
I0
sg10
I1
sg11
I0
sg12
I0
sg13
I0
sg14
I0
sg15
I0
sbsg16
I0
sbg234
tp1200
F-171.0
s((iQStates
QState
p1201
(dp1202
g3
I1
sg4
I4
sg5
(iQStates
PrevAction
p1203
(dp1204
g8
I0
sg9
I0
sg10
I0
sg11
I4
sg12
I1
sg13
I0
sg14
I0
sg15
I1
sbsg16
I0
sbg121
tp1205
F-93.0
s((iQStates
QState
p1206
(dp1207
g3
I1
sg4
I0
sg5
(iQStates
PrevAction
p1208
(dp1209
g8
I0
sg9
I0
sg10
I1
sg11
I0
sg12
I0
sg13
I0
sg14
I0
sg15
I1
sbsg16
I1
sbg668
tp1210
F-8.0
s((iQStates
QState
p1211
(dp1212
g3
I1
sg4
I0
sg5
(iQStates
PrevAction
p1213
(dp1214
g8
I4
sg9
I0
sg10
I1
sg11
I2
sg12
I0
sg13
I0
sg14
I1
sg15
I2
sbsg16
I3
sbg182
tp1215
F-186.0
s((iQStates
QState
p1216
(dp1217
g3
I1
sg4
I3
sg5
(iQStates
PrevAction
p1218
(dp1219
g8
I5
sg9
I0
sg10
I1
sg11
I0
sg12
I0
sg13
I0
sg14
I1
sg15
I0
sbsg16
I0
sbg557
tp1220
F-171.0
s((iQStates
QState
p1221
(dp1222
g3
I0
sg4
I3
sg5
(iQStates
PrevAction
p1223
(dp1224
g8
I3
sg9
I0
sg10
I1
sg11
I3
sg12
I0
sg13
I0
sg14
I0
sg15
I1
sbsg16
I0
sbg668
tp1225
F-68.0
s((iQStates
QState
p1226
(dp1227
g3
I0
sg4
I0
sg5
(iQStates
PrevAction
p1228
(dp1229
g8
I1
sg9
I1
sg10
I0
sg11
I4
sg12
I1
sg13
I0
sg14
I1
sg15
I0
sbsg16
I2
sbg271
tp1230
F-90.0
s((iQStates
QState
p1231
(dp1232
g3
I0
sg4
I0
sg5
(iQStates
PrevAction
p1233
(dp1234
g8
I0
sg9
I0
sg10
I0
sg11
I3
sg12
I1
sg13
I0
sg14
I0
sg15
I0
sbsg16
I2
sbg769
tp1235
F-60.0
s((iQStates
QState
p1236
(dp1237
g3
I1
sg4
I4
sg5
(iQStates
PrevAction
p1238
(dp1239
g8
I3
sg9
I0
sg10
I2
sg11
I0
sg12
I0
sg13
I0
sg14
I0
sg15
I0
sbsg16
I1
sbg17
tp1240
F-91.0
s((iQStates
QState
p1241
(dp1242
g3
I1
sg4
I4
sg5
(iQStates
PrevAction
p1243
(dp1244
g8
I0
sg9
I0
sg10
I0
sg11
I4
sg12
I1
sg13
I0
sg14
I0
sg15
I1
sbsg16
I0
sbg109
tp1245
F-78.0
s((iQStates
QState
p1246
(dp1247
g3
I0
sg4
I3
sg5
(iQStates
PrevAction
p1248
(dp1249
g8
I3
sg9
I0
sg10
I0
sg11
I0
sg12
I0
sg13
I0
sg14
I1
sg15
I0
sbsg16
I3
sbg121
tp1250
F-186.0
s((iQStates
QState
p1251
(dp1252
g3
I0
sg4
I0
sg5
(iQStates
PrevAction
p1253
(dp1254
g8
I3
sg9
I0
sg10
I1
sg11
I3
sg12
I1
sg13
I0
sg14
I0
sg15
I0
sbsg16
I1
sbg23
tp1255
F92.0
s((iQStates
QState
p1256
(dp1257
g3
I1
sg4
I0
sg5
(iQStates
PrevAction
p1258
(dp1259
g8
I1
sg9
I0
sg10
I1
sg11
I1
sg12
I1
sg13
I0
sg14
I0
sg15
I0
sbsg16
I2
sbg86
tp1260
F-20.0
s((iQStates
QState
p1261
(dp1262
g3
I1
sg4
I0
sg5
(iQStates
PrevAction
p1263
(dp1264
g8
I4
sg9
I0
sg10
I0
sg11
I3
sg12
I1
sg13
I0
sg14
I2
sg15
I1
sbsg16
I2
sbg234
tp1265
F-70.0
s((iQStates
QState
p1266
(dp1267
g3
I0
sg4
I3
sg5
(iQStates
PrevAction
p1268
(dp1269
g8
I0
sg9
I1
sg10
I0
sg11
I3
sg12
I0
sg13
I0
sg14
I0
sg15
I1
sbsg16
I0
sbg40
tp1270
F102.0
s((iQStates
QState
p1271
(dp1272
g3
I0
sg4
I0
sg5
(iQStates
PrevAction
p1273
(dp1274
g8
I0
sg9
I0
sg10
I0
sg11
I0
sg12
I0
sg13
I0
sg14
I0
sg15
I0
sbsg16
I3
sbg86
tp1275
F-21.080000000000002
s((iQStates
QState
p1276
(dp1277
g3
I0
sg4
I0
sg5
(iQStates
PrevAction
p1278
(dp1279
g8
I0
sg9
I1
sg10
I0
sg11
I0
sg12
I0
sg13
I0
sg14
I0
sg15
I0
sbsg16
I2
sbg51
tp1280
F-134.0
s((iQStates
QState
p1281
(dp1282
g3
I0
sg4
I0
sg5
(iQStates
PrevAction
p1283
(dp1284
g8
I5
sg9
I0
sg10
I1
sg11
I3
sg12
I1
sg13
I0
sg14
I1
sg15
I0
sbsg16
I1
sbg115
tp1285
F-124.0
s((iQStates
QState
p1286
(dp1287
g3
I0
sg4
I4
sg5
(iQStates
PrevAction
p1288
(dp1289
g8
I0
sg9
I0
sg10
I0
sg11
I0
sg12
I0
sg13
I0
sg14
I0
sg15
I1
sbsg16
I3
sbg51
tp1290
F113.0
s((iQStates
QState
p1291
(dp1292
g3
I1
sg4
I3
sg5
(iQStates
PrevAction
p1293
(dp1294
g8
I5
sg9
I0
sg10
I2
sg11
I5
sg12
I0
sg13
I0
sg14
I0
sg15
I2
sbsg16
I5
sbg121
tp1295
F-153.0
s((iQStates
QState
p1296
(dp1297
g3
I0
sg4
I0
sg5
(iQStates
PrevAction
p1298
(dp1299
g8
I4
sg9
I0
sg10
I0
sg11
I3
sg12
I1
sg13
I0
sg14
I1
sg15
I0
sbsg16
I3
sbg557
tp1300
F-154.0
s((iQStates
QState
p1301
(dp1302
g3
I1
sg4
I3
sg5
(iQStates
PrevAction
p1303
(dp1304
g8
I3
sg9
I0
sg10
I1
sg11
I2
sg12
I1
sg13
I0
sg14
I1
sg15
I1
sbsg16
I0
sbg86
tp1305
F-32.0
s((iQStates
QState
p1306
(dp1307
g3
I1
sg4
I3
sg5
(iQStates
PrevAction
p1308
(dp1309
g8
I2
sg9
I0
sg10
I2
sg11
I0
sg12
I0
sg13
I1
sg14
I0
sg15
I0
sbsg16
I0
sbg51
tp1310
F-57.0
s((iQStates
QState
p1311
(dp1312
g3
I0
sg4
I3
sg5
(iQStates
PrevAction
p1313
(dp1314
g8
I0
sg9
I0
sg10
I0
sg11
I1
sg12
I0
sg13
I0
sg14
I0
sg15
I1
sbsg16
I0
sbg557
tp1315
F-134.0
s((iQStates
QState
p1316
(dp1317
g3
I0
sg4
I0
sg5
(iQStates
PrevAction
p1318
(dp1319
g8
I0
sg9
I0
sg10
I1
sg11
I0
sg12
I0
sg13
I0
sg14
I0
sg15
I0
sbsg16
I4
sbg23
tp1320
F222.0
s((iQStates
QState
p1321
(dp1322
g3
I1
sg4
I0
sg5
(iQStates
PrevAction
p1323
(dp1324
g8
I0
sg9
I0
sg10
I1
sg11
I0
sg12
I0
sg13
I0
sg14
I0
sg15
I1
sbsg16
I1
sbg546
tp1325
F10.0
s((iQStates
QState
p1326
(dp1327
g3
I0
sg4
I5
sg5
(iQStates
PrevAction
p1328
(dp1329
g8
I0
sg9
I0
sg10
I0
sg11
I0
sg12
I0
sg13
I0
sg14
I0
sg15
I1
sbsg16
I0
sbg668
tp1330
F-134.0
s((iQStates
QState
p1331
(dp1332
g3
I0
sg4
I3
sg5
(iQStates
PrevAction
p1333
(dp1334
g8
I0
sg9
I0
sg10
I0
sg11
I3
sg12
I0
sg13
I0
sg14
I0
sg15
I1
sbsg16
I2
sbg165
tp1335
F-66.0
s((iQStates
QState
p1336
(dp1337
g3
I1
sg4
I0
sg5
(iQStates
PrevAction
p1338
(dp1339
g8
I0
sg9
I0
sg10
I1
sg11
I0
sg12
I0
sg13
I0
sg14
I0
sg15
I1
sbsg16
I2
sbg92
tp1340
F-88.0
s((iQStates
QState
p1341
(dp1342
g3
I1
sg4
I0
sg5
(iQStates
PrevAction
p1343
(dp1344
g8
I0
sg9
I0
sg10
I1
sg11
I0
sg12
I0
sg13
I1
sg14
I0
sg15
I0
sbsg16
I2
sbg29
tp1345
F150.0
s((iQStates
QState
p1346
(dp1347
g3
I0
sg4
I0
sg5
(iQStates
PrevAction
p1348
(dp1349
g8
I3
sg9
I0
sg10
I1
sg11
I3
sg12
I1
sg13
I0
sg14
I0
sg15
I0
sbsg16
I2
sbg557
tp1350
F-88.0
s((iQStates
QState
p1351
(dp1352
g3
I0
sg4
I3
sg5
(iQStates
PrevAction
p1353
(dp1354
g8
I0
sg9
I1
sg10
I0
sg11
I3
sg12
I1
sg13
I0
sg14
I0
sg15
I1
sbsg16
I5
sbg138
tp1355
F-41.0
s((iQStates
QState
p1356
(dp1357
g3
I1
sg4
I4
sg5
(iQStates
PrevAction
p1358
(dp1359
g8
I0
sg9
I0
sg10
I0
sg11
I4
sg12
I1
sg13
I0
sg14
I0
sg15
I0
sbsg16
I2
sbg115
tp1360
F92.0
s((iQStates
QState
p1361
(dp1362
g3
I0
sg4
I3
sg5
(iQStates
PrevAction
p1363
(dp1364
g8
I3
sg9
I0
sg10
I1
sg11
I0
sg12
I0
sg13
I0
sg14
I1
sg15
I0
sbsg16
I1
sbg445
tp1365
F-148.0
s((iQStates
QState
p1366
(dp1367
g3
I0
sg4
I3
sg5
(iQStates
PrevAction
p1368
(dp1369
g8
I0
sg9
I0
sg10
I0
sg11
I6
sg12
I1
sg13
I0
sg14
I0
sg15
I1
sbsg16
I3
sbg68
tp1370
F-245.0
s((iQStates
QState
p1371
(dp1372
g3
I1
sg4
I3
sg5
(iQStates
PrevAction
p1373
(dp1374
g8
I3
sg9
I0
sg10
I1
sg11
I0
sg12
I0
sg13
I1
sg14
I1
sg15
I0
sbsg16
I1
sbg546
tp1375
F-91.0
s((iQStates
QState
p1376
(dp1377
g3
I1
sg4
I0
sg5
(iQStates
PrevAction
p1378
(dp1379
g8
I4
sg9
I0
sg10
I1
sg11
I3
sg12
I1
sg13
I0
sg14
I1
sg15
I1
sbsg16
I1
sbg144
tp1380
F-45.0
s((iQStates
QState
p1381
(dp1382
g3
I1
sg4
I3
sg5
(iQStates
PrevAction
p1383
(dp1384
g8
I0
sg9
I1
sg10
I0
sg11
I5
sg12
I1
sg13
I0
sg14
I0
sg15
I1
sbsg16
I2
sbg546
tp1385
F-134.0
s((iQStates
QState
p1386
(dp1387
g3
I1
sg4
I4
sg5
(iQStates
PrevAction
p1388
(dp1389
g8
I5
sg9
I0
sg10
I1
sg11
I0
sg12
I0
sg13
I0
sg14
I1
sg15
I0
sbsg16
I0
sbg546
tp1390
F-57.0
s((iQStates
QState
p1391
(dp1392
g3
I0
sg4
I0
sg5
(iQStates
PrevAction
p1393
(dp1394
g8
I2
sg9
I0
sg10
I0
sg11
I0
sg12
I0
sg13
I1
sg14
I1
sg15
I0
sbsg16
I1
sbg51
tp1395
F31.0
s((iQStates
QState
p1396
(dp1397
g3
I0
sg4
I0
sg5
(iQStates
PrevAction
p1398
(dp1399
g8
I0
sg9
I1
sg10
I0
sg11
I3
sg12
I1
sg13
I0
sg14
I0
sg15
I0
sbsg16
I1
sbg387
tp1400
F16.0
s((iQStates
QState
p1401
(dp1402
g3
I0
sg4
I0
sg5
(iQStates
PrevAction
p1403
(dp1404
g8
I3
sg9
I0
sg10
I2
sg11
I3
sg12
I1
sg13
I0
sg14
I0
sg15
I0
sbsg16
I1
sbg176
tp1405
F-50.0
s((iQStates
QState
p1406
(dp1407
g3
I0
sg4
I0
sg5
(iQStates
PrevAction
p1408
(dp1409
g8
I0
sg9
I1
sg10
I0
sg11
I0
sg12
I0
sg13
I0
sg14
I0
sg15
I0
sbsg16
I2
sbg68
tp1410
F-80.0
s((iQStates
QState
p1411
(dp1412
g3
I1
sg4
I3
sg5
(iQStates
PrevAction
p1413
(dp1414
g8
I0
sg9
I1
sg10
I0
sg11
I4
sg12
I2
sg13
I0
sg14
I0
sg15
I1
sbsg16
I0
sbg668
tp1415
F-117.0
s((iQStates
QState
p1416
(dp1417
g3
I1
sg4
I4
sg5
(iQStates
PrevAction
p1418
(dp1419
g8
I0
sg9
I0
sg10
I0
sg11
I0
sg12
I0
sg13
I0
sg14
I0
sg15
I1
sbsg16
I1
sbg433
tp1420
F-134.0
s((iQStates
QState
p1421
(dp1422
g3
I0
sg4
I0
sg5
(iQStates
PrevAction
p1423
(dp1424
g8
I0
sg9
I0
sg10
I0
sg11
I0
sg12
I0
sg13
I0
sg14
I0
sg15
I0
sbsg16
I1
sbg182
tp1425
F-117.0
s((iQStates
QState
p1426
(dp1427
g3
I0
sg4
I0
sg5
(iQStates
PrevAction
p1428
(dp1429
g8
I1
sg9
I0
sg10
I0
sg11
I0
sg12
I0
sg13
I0
sg14
I1
sg15
I0
sbsg16
I2
sbg86
tp1430
F-67.8
s((iQStates
QState
p1431
(dp1432
g3
I0
sg4
I0
sg5
(iQStates
PrevAction
p1433
(dp1434
g8
I0
sg9
I0
sg10
I0
sg11
I0
sg12
I0
sg13
I0
sg14
I0
sg15
I0
sbsg16
I1
sbg127
tp1435
F60.8
s((iQStates
QState
p1436
(dp1437
g3
I0
sg4
I0
sg5
(iQStates
PrevAction
p1438
(dp1439
g8
I4
sg9
I0
sg10
I0
sg11
I2
sg12
I0
sg13
I0
sg14
I1
sg15
I1
sbsg16
I3
sbg51
tp1440
F-25.0
s((iQStates
QState
p1441
(dp1442
g3
I0
sg4
I4
sg5
(iQStates
PrevAction
p1443
(dp1444
g8
I0
sg9
I0
sg10
I0
sg11
I4
sg12
I0
sg13
I0
sg14
I0
sg15
I1
sbsg16
I2
sbg127
tp1445
F-126.0
s((iQStates
QState
p1446
(dp1447
g3
I0
sg4
I3
sg5
(iQStates
PrevAction
p1448
(dp1449
g8
I0
sg9
I0
sg10
I0
sg11
I4
sg12
I0
sg13
I0
sg14
I0
sg15
I1
sbsg16
I2
sbg387
tp1450
F52.0
s((iQStates
QState
p1451
(dp1452
g3
I1
sg4
I0
sg5
(iQStates
PrevAction
p1453
(dp1454
g8
I2
sg9
I0
sg10
I1
sg11
I0
sg12
I0
sg13
I1
sg14
I1
sg15
I0
sbsg16
I2
sbg68
tp1455
F150.0
s((iQStates
QState
p1456
(dp1457
g3
I0
sg4
I5
sg5
(iQStates
PrevAction
p1458
(dp1459
g8
I0
sg9
I0
sg10
I0
sg11
I5
sg12
I0
sg13
I0
sg14
I0
sg15
I1
sbsg16
I4
sbg144
tp1460
F-206.0
s((iQStates
QState
p1461
(dp1462
g3
I1
sg4
I0
sg5
(iQStates
PrevAction
p1463
(dp1464
g8
I0
sg9
I1
sg10
I0
sg11
I1
sg12
I1
sg13
I0
sg14
I0
sg15
I0
sbsg16
I3
sbg40
tp1465
F-66.0
s((iQStates
QState
p1466
(dp1467
g3
I1
sg4
I3
sg5
(iQStates
PrevAction
p1468
(dp1469
g8
I2
sg9
I0
sg10
I2
sg11
I0
sg12
I0
sg13
I1
sg14
I0
sg15
I0
sbsg16
I3
sbg109
tp1470
F-42.0
s((iQStates
QState
p1471
(dp1472
g3
I0
sg4
I3
sg5
(iQStates
PrevAction
p1473
(dp1474
g8
I0
sg9
I0
sg10
I0
sg11
I0
sg12
I0
sg13
I0
sg14
I0
sg15
I0
sbsg16
I5
sbg144
tp1475
F33.0
s((iQStates
QState
p1476
(dp1477
g3
I0
sg4
I4
sg5
(iQStates
PrevAction
p1478
(dp1479
g8
I0
sg9
I1
sg10
I0
sg11
I5
sg12
I0
sg13
I0
sg14
I0
sg15
I1
sbsg16
I3
sbg439
tp1480
F-186.0
s((iQStates
QState
p1481
(dp1482
g3
I0
sg4
I3
sg5
(iQStates
PrevAction
p1483
(dp1484
g8
I4
sg9
I0
sg10
I1
sg11
I0
sg12
I0
sg13
I0
sg14
I1
sg15
I0
sbsg16
I1
sbg23
tp1485
F150.0
s((iQStates
QState
p1486
(dp1487
g3
I0
sg4
I4
sg5
(iQStates
PrevAction
p1488
(dp1489
g8
I0
sg9
I0
sg10
I0
sg11
I2
sg12
I0
sg13
I0
sg14
I0
sg15
I1
sbsg16
I0
sbg433
tp1490
F-134.0
s((iQStates
QState
p1491
(dp1492
g3
I0
sg4
I0
sg5
(iQStates
PrevAction
p1493
(dp1494
g8
I0
sg9
I0
sg10
I1
sg11
I0
sg12
I0
sg13
I0
sg14
I0
sg15
I0
sbsg16
I2
sbg546
tp1495
F80.0
s((iQStates
QState
p1496
(dp1497
g3
I1
sg4
I3
sg5
(iQStates
PrevAction
p1498
(dp1499
g8
I3
sg9
I0
sg10
I1
sg11
I0
sg12
I0
sg13
I1
sg14
I1
sg15
I0
sbsg16
I5
sbg144
tp1500
F53.0
s((iQStates
QState
p1501
(dp1502
g3
I1
sg4
I0
sg5
(iQStates
PrevAction
p1503
(dp1504
g8
I3
sg9
I0
sg10
I1
sg11
I0
sg12
I0
sg13
I1
sg14
I1
sg15
I0
sbsg16
I2
sbg271
tp1505
F-48.0
s((iQStates
QState
p1506
(dp1507
g3
I0
sg4
I0
sg5
(iQStates
PrevAction
p1508
(dp1509
g8
I0
sg9
I0
sg10
I1
sg11
I0
sg12
I0
sg13
I0
sg14
I0
sg15
I0
sbsg16
I3
sbg121
tp1510
F10.0
s((iQStates
QState
p1511
(dp1512
g3
I0
sg4
I0
sg5
(iQStates
PrevAction
p1513
(dp1514
g8
I0
sg9
I0
sg10
I0
sg11
I0
sg12
I0
sg13
I0
sg14
I0
sg15
I0
sbsg16
I2
sbg769
tp1515
F-46.519999999999996
s((iQStates
QState
p1516
(dp1517
g3
I0
sg4
I0
sg5
(iQStates
PrevAction
p1518
(dp1519
g8
I1
sg9
I1
sg10
I0
sg11
I4
sg12
I1
sg13
I0
sg14
I1
sg15
I0
sbsg16
I2
sbg51
tp1520
F-72.0
s((iQStates
QState
p1521
(dp1522
g3
I0
sg4
I3
sg5
(iQStates
PrevAction
p1523
(dp1524
g8
I4
sg9
I0
sg10
I1
sg11
I4
sg12
I0
sg13
I0
sg14
I1
sg15
I1
sbsg16
I1
sbg445
tp1525
F-69.0
s((iQStates
QState
p1526
(dp1527
g3
I1
sg4
I0
sg5
(iQStates
PrevAction
p1528
(dp1529
g8
I0
sg9
I1
sg10
I0
sg11
I0
sg12
I0
sg13
I0
sg14
I0
sg15
I1
sbsg16
I1
sbg17
tp1530
F14.0
s((iQStates
QState
p1531
(dp1532
g3
I0
sg4
I0
sg5
(iQStates
PrevAction
p1533
(dp1534
g8
I3
sg9
I0
sg10
I0
sg11
I2
sg12
I0
sg13
I0
sg14
I1
sg15
I1
sbsg16
I2
sbg165
tp1535
F55.0
s((iQStates
QState
p1536
(dp1537
g3
I0
sg4
I0
sg5
(iQStates
PrevAction
p1538
(dp1539
g8
I5
sg9
I0
sg10
I1
sg11
I3
sg12
I1
sg13
I0
sg14
I1
sg15
I0
sbsg16
I2
sbg68
tp1540
F-90.0
s((iQStates
QState
p1541
(dp1542
g3
I1
sg4
I0
sg5
(iQStates
PrevAction
p1543
(dp1544
g8
I0
sg9
I1
sg10
I0
sg11
I3
sg12
I1
sg13
I0
sg14
I0
sg15
I1
sbsg16
I3
sbg29
tp1545
F-245.0
s((iQStates
QState
p1546
(dp1547
g3
I0
sg4
I0
sg5
(iQStates
PrevAction
p1548
(dp1549
g8
I5
sg9
I0
sg10
I0
sg11
I0
sg12
I0
sg13
I1
sg14
I2
sg15
I0
sbsg16
I3
sbg557
tp1550
F-173.0
s((iQStates
QState
p1551
(dp1552
g3
I0
sg4
I0
sg5
(iQStates
PrevAction
p1553
(dp1554
g8
I0
sg9
I1
sg10
I0
sg11
I3
sg12
I1
sg13
I0
sg14
I0
sg15
I0
sbsg16
I2
sbg176
tp1555
F52.0
s((iQStates
QState
p1556
(dp1557
g3
I0
sg4
I0
sg5
(iQStates
PrevAction
p1558
(dp1559
g8
I0
sg9
I1
sg10
I0
sg11
I0
sg12
I0
sg13
I0
sg14
I0
sg15
I0
sbsg16
I1
sbg546
tp1560
F16.0
s((iQStates
QState
p1561
(dp1562
g3
I0
sg4
I0
sg5
(iQStates
PrevAction
p1563
(dp1564
g8
I3
sg9
I0
sg10
I0
sg11
I2
sg12
I1
sg13
I0
sg14
I1
sg15
I0
sbsg16
I3
sbg182
tp1565
F-55.0
s((iQStates
QState
p1566
(dp1567
g3
I0
sg4
I5
sg5
(iQStates
PrevAction
p1568
(dp1569
g8
I0
sg9
I0
sg10
I0
sg11
I0
sg12
I0
sg13
I0
sg14
I0
sg15
I1
sbsg16
I1
sbg144
tp1570
F-186.0
s((iQStates
QState
p1571
(dp1572
g3
I0
sg4
I3
sg5
(iQStates
PrevAction
p1573
(dp1574
g8
I0
sg9
I0
sg10
I0
sg11
I0
sg12
I0
sg13
I0
sg14
I0
sg15
I0
sbsg16
I0
sbg86
tp1575
F-124.0
s((iQStates
QState
p1576
(dp1577
g3
I0
sg4
I3
sg5
(iQStates
PrevAction
p1578
(dp1579
g8
I3
sg9
I0
sg10
I1
sg11
I0
sg12
I0
sg13
I1
sg14
I0
sg15
I0
sbsg16
I5
sbg23
tp1580
F-62.0
s((iQStates
QState
p1581
(dp1582
g3
I0
sg4
I0
sg5
(iQStates
PrevAction
p1583
(dp1584
g8
I0
sg9
I0
sg10
I0
sg11
I0
sg12
I0
sg13
I0
sg14
I0
sg15
I0
sbsg16
I3
sbg668
tp1585
F-58.36
s((iQStates
QState
p1586
(dp1587
g3
I0
sg4
I3
sg5
(iQStates
PrevAction
p1588
(dp1589
g8
I0
sg9
I0
sg10
I0
sg11
I3
sg12
I0
sg13
I0
sg14
I0
sg15
I1
sbsg16
I2
sbg68
tp1590
F59.0
s((iQStates
QState
p1591
(dp1592
g3
I1
sg4
I4
sg5
(iQStates
PrevAction
p1593
(dp1594
g8
I0
sg9
I0
sg10
I0
sg11
I5
sg12
I1
sg13
I0
sg14
I0
sg15
I1
sbsg16
I0
sbg51
tp1595
F-117.0
s((iQStates
QState
p1596
(dp1597
g3
I1
sg4
I0
sg5
(iQStates
PrevAction
p1598
(dp1599
g8
I0
sg9
I1
sg10
I0
sg11
I1
sg12
I1
sg13
I0
sg14
I0
sg15
I0
sbsg16
I1
sbg109
tp1600
F-23.0
s((iQStates
QState
p1601
(dp1602
g3
I1
sg4
I0
sg5
(iQStates
PrevAction
p1603
(dp1604
g8
I1
sg9
I0
sg10
I1
sg11
I1
sg12
I1
sg13
I0
sg14
I0
sg15
I0
sbsg16
I2
sbg668
tp1605
F-20.0
s((iQStates
QState
p1606
(dp1607
g3
I0
sg4
I3
sg5
(iQStates
PrevAction
p1608
(dp1609
g8
I0
sg9
I0
sg10
I0
sg11
I1
sg12
I0
sg13
I0
sg14
I0
sg15
I1
sbsg16
I5
sbg546
tp1610
F-18.0
s((iQStates
QState
p1611
(dp1612
g3
I0
sg4
I0
sg5
(iQStates
PrevAction
p1613
(dp1614
g8
I0
sg9
I0
sg10
I1
sg11
I0
sg12
I0
sg13
I0
sg14
I0
sg15
I0
sbsg16
I2
sbg74
tp1615
F28.0
s((iQStates
QState
p1616
(dp1617
g3
I0
sg4
I3
sg5
(iQStates
PrevAction
p1618
(dp1619
g8
I2
sg9
I0
sg10
I1
sg11
I2
sg12
I0
sg13
I0
sg14
I0
sg15
I1
sbsg16
I2
sbg121
tp1620
F-32.0
s((iQStates
QState
p1621
(dp1622
g3
I0
sg4
I3
sg5
(iQStates
PrevAction
p1623
(dp1624
g8
I2
sg9
I0
sg10
I1
sg11
I0
sg12
I0
sg13
I1
sg14
I0
sg15
I0
sbsg16
I2
sbg17
tp1625
F80.0
s((iQStates
QState
p1626
(dp1627
g3
I1
sg4
I0
sg5
(iQStates
PrevAction
p1628
(dp1629
g8
I0
sg9
I0
sg10
I1
sg11
I0
sg12
I0
sg13
I0
sg14
I0
sg15
I1
sbsg16
I2
sbg445
tp1630
F-88.0
s((iQStates
QState
p1631
(dp1632
g3
I1
sg4
I4
sg5
(iQStates
PrevAction
p1633
(dp1634
g8
I3
sg9
I0
sg10
I2
sg11
I0
sg12
I0
sg13
I0
sg14
I0
sg15
I0
sbsg16
I3
sbg546
tp1635
F-42.0
s((iQStates
QState
p1636
(dp1637
g3
I0
sg4
I4
sg5
(iQStates
PrevAction
p1638
(dp1639
g8
I0
sg9
I0
sg10
I0
sg11
I2
sg12
I0
sg13
I0
sg14
I0
sg15
I1
sbsg16
I0
sbg439
tp1640
F18.0
s((iQStates
QState
p1641
(dp1642
g3
I1
sg4
I3
sg5
(iQStates
PrevAction
p1643
(dp1644
g8
I0
sg9
I1
sg10
I0
sg11
I2
sg12
I1
sg13
I0
sg14
I0
sg15
I1
sbsg16
I0
sbg387
tp1645
F-117.0
s((iQStates
QState
p1646
(dp1647
g3
I1
sg4
I0
sg5
(iQStates
PrevAction
p1648
(dp1649
g8
I1
sg9
I0
sg10
I0
sg11
I0
sg12
I0
sg13
I0
sg14
I1
sg15
I1
sbsg16
I2
sbg387
tp1650
F-70.0
s((iQStates
QState
p1651
(dp1652
g3
I0
sg4
I0
sg5
(iQStates
PrevAction
p1653
(dp1654
g8
I0
sg9
I1
sg10
I0
sg11
I0
sg12
I0
sg13
I0
sg14
I0
sg15
I0
sbsg16
I3
sbg109
tp1655
F-51.0
s((iQStates
QState
p1656
(dp1657
g3
I0
sg4
I0
sg5
(iQStates
PrevAction
p1658
(dp1659
g8
I0
sg9
I0
sg10
I0
sg11
I0
sg12
I0
sg13
I0
sg14
I0
sg15
I0
sbsg16
I3
sbg234
tp1660
F-142.56799999999998
s((iQStates
QState
p1661
(dp1662
g3
I1
sg4
I0
sg5
(iQStates
PrevAction
p1663
(dp1664
g8
I0
sg9
I1
sg10
I0
sg11
I0
sg12
I0
sg13
I0
sg14
I0
sg15
I1
sbsg16
I2
sbg668
tp1665
F39.2
s((iQStates
QState
p1666
(dp1667
g3
I0
sg4
I0
sg5
(iQStates
PrevAction
p1668
(dp1669
g8
I4
sg9
I0
sg10
I0
sg11
I2
sg12
I1
sg13
I0
sg14
I1
sg15
I0
sbsg16
I1
sbg144
tp1670
F-117.0
s((iQStates
QState
p1671
(dp1672
g3
I1
sg4
I0
sg5
(iQStates
PrevAction
p1673
(dp1674
g8
I1
sg9
I0
sg10
I1
sg11
I1
sg12
I1
sg13
I0
sg14
I0
sg15
I0
sbsg16
I2
sbg144
tp1675
F25.0
s((iQStates
QState
p1676
(dp1677
g3
I0
sg4
I3
sg5
(iQStates
PrevAction
p1678
(dp1679
g8
I0
sg9
I0
sg10
I0
sg11
I0
sg12
I0
sg13
I0
sg14
I0
sg15
I0
sbsg16
I2
sbg234
tp1680
F14.0
s((iQStates
QState
p1681
(dp1682
g3
I0
sg4
I0
sg5
(iQStates
PrevAction
p1683
(dp1684
g8
I0
sg9
I1
sg10
I0
sg11
I3
sg12
I1
sg13
I0
sg14
I0
sg15
I0
sbsg16
I3
sbg387
tp1685
F-51.0
s((iQStates
QState
p1686
(dp1687
g3
I1
sg4
I4
sg5
(iQStates
PrevAction
p1688
(dp1689
g8
I0
sg9
I0
sg10
I0
sg11
I3
sg12
I1
sg13
I0
sg14
I0
sg15
I1
sbsg16
I4
sbg546
tp1690
F-31.0
s.